---
triple:          'arm64-apple-darwin'
binary-path:     '/Users/fdsantos/Documents/BYUI/Spring 2024/CSE310/Projects/WordFrequencyCounter/main'
relocations:
  - { offsetInCU: 0x7522, offset: 0x7522, size: 0x8, addend: 0x0, symName: __ZNSt3__111__introsortINS_17_ClassicAlgPolicyERZN20WordFrequencyCounter18CountWordFrequencyENS_12basic_stringIcNS_11char_traitsIcEENS_9allocatorIcEEEEEUl4WordS9_E_PS9_Lb0EEEvT1_SD_T0_NS_15iterator_traitsISD_E15difference_typeEb, symObjAddr: 0x6850, symBinAddr: 0x1000089BC, symSize: 0x660 }
  - { offsetInCU: 0x764A, offset: 0x764A, size: 0x8, addend: 0x0, symName: __ZNSt3__126__insertion_sort_unguardedB8ue170006INS_17_ClassicAlgPolicyERZN20WordFrequencyCounter18CountWordFrequencyENS_12basic_stringIcNS_11char_traitsIcEENS_9allocatorIcEEEEEUl4WordS9_E_PS9_EEvT1_SD_T0_, symObjAddr: 0x733C, symBinAddr: 0x1000094A8, symSize: 0x228 }
  - { offsetInCU: 0x7724, offset: 0x7724, size: 0x8, addend: 0x0, symName: __ZNSt3__111__sift_downB8ue170006INS_17_ClassicAlgPolicyERZN20WordFrequencyCounter18CountWordFrequencyENS_12basic_stringIcNS_11char_traitsIcEENS_9allocatorIcEEEEEUl4WordS9_E_PS9_EEvT1_OT0_NS_15iterator_traitsISD_E15difference_typeESD_, symObjAddr: 0x9820, symBinAddr: 0x10000B98C, symSize: 0x4C8 }
  - { offsetInCU: 0x77D2, offset: 0x77D2, size: 0x8, addend: 0x0, symName: __ZNSt3__117__floyd_sift_downB8ue170006INS_17_ClassicAlgPolicyERZN20WordFrequencyCounter18CountWordFrequencyENS_12basic_stringIcNS_11char_traitsIcEENS_9allocatorIcEEEEEUl4WordS9_E_PS9_EET1_SD_OT0_NS_15iterator_traitsISD_E15difference_typeE, symObjAddr: 0x9EC8, symBinAddr: 0x10000C034, symSize: 0x1E0 }
  - { offsetInCU: 0x786A, offset: 0x786A, size: 0x8, addend: 0x0, symName: __ZNSt3__131__partition_with_equals_on_leftB8ue170006INS_17_ClassicAlgPolicyEP4WordRZN20WordFrequencyCounter18CountWordFrequencyENS_12basic_stringIcNS_11char_traitsIcEENS_9allocatorIcEEEEEUlS2_S2_E_EET0_SD_SD_T1_, symObjAddr: 0x7960, symBinAddr: 0x100009ACC, symSize: 0x520 }
  - { offsetInCU: 0x7927, offset: 0x7927, size: 0x8, addend: 0x0, symName: __ZNSt3__118__bitset_partitionB8ue170006INS_17_ClassicAlgPolicyEP4WordRZN20WordFrequencyCounter18CountWordFrequencyENS_12basic_stringIcNS_11char_traitsIcEENS_9allocatorIcEEEEEUlS2_S2_E_EENS_4pairIT0_bEESE_SE_T1_, symObjAddr: 0x7E80, symBinAddr: 0x100009FEC, symSize: 0x584 }
  - { offsetInCU: 0x7A25, offset: 0x7A25, size: 0x8, addend: 0x0, symName: __ZNSt3__124__swap_bitmap_pos_withinB8ue170006INS_17_ClassicAlgPolicyEP4WordEEvRT0_S5_RyS6_, symObjAddr: 0xA9AC, symBinAddr: 0x10000CB18, symSize: 0x1E0 }
  - { offsetInCU: 0x7AF2, offset: 0x7AF2, size: 0x8, addend: 0x0, symName: __ZNSt3__132__partition_with_equals_on_rightB8ue170006INS_17_ClassicAlgPolicyEP4WordRZN20WordFrequencyCounter18CountWordFrequencyENS_12basic_stringIcNS_11char_traitsIcEENS_9allocatorIcEEEEEUlS2_S2_E_EENS_4pairIT0_bEESE_SE_T1_, symObjAddr: 0x8404, symBinAddr: 0x10000A570, symSize: 0x4CC }
  - { offsetInCU: 0x7BC0, offset: 0x7BC0, size: 0x8, addend: 0x0, symName: __ZNSt3__127__insertion_sort_incompleteB8ue170006INS_17_ClassicAlgPolicyERZN20WordFrequencyCounter18CountWordFrequencyENS_12basic_stringIcNS_11char_traitsIcEENS_9allocatorIcEEEEEUl4WordS9_E_PS9_EEbT1_SD_T0_, symObjAddr: 0x88D0, symBinAddr: 0x10000AA3C, symSize: 0x4F4 }
  - { offsetInCU: 0x7CB3, offset: 0x7CB3, size: 0x8, addend: 0x0, symName: __ZNSt3__16copy_nB8ue170006IPKcmPcEENS_9enable_ifIXsr37__has_random_access_iterator_categoryIT_EE5valueET1_E4typeES5_T0_S6_, symObjAddr: 0xBD34, symBinAddr: 0x10000DEA0, symSize: 0x44 }
  - { offsetInCU: 0x7D3A, offset: 0x7D3A, size: 0x8, addend: 0x0, symName: __ZNSt3__124__put_character_sequenceB8ue170006IcNS_11char_traitsIcEEEERNS_13basic_ostreamIT_T0_EES7_PKS4_m, symObjAddr: 0xC53C, symBinAddr: 0x10000E6A8, symSize: 0x1EC }
  - { offsetInCU: 0xA50F, offset: 0xA50F, size: 0x8, addend: 0x0, symName: __ZNSt3__1lsB8ue170006IcNS_11char_traitsIcEENS_9allocatorIcEEEERNS_13basic_ostreamIT_T0_EES9_RKNS_12basic_stringIS6_S7_T1_EE, symObjAddr: 0xD14, symBinAddr: 0x100002E80, symSize: 0x4C }
  - { offsetInCU: 0xA567, offset: 0xA567, size: 0x8, addend: 0x0, symName: __ZNSt3__1plB8ue170006IcNS_11char_traitsIcEENS_9allocatorIcEEEENS_12basic_stringIT_T0_T1_EEOS9_SA_, symObjAddr: 0xD60, symBinAddr: 0x100002ECC, symSize: 0x40 }
  - { offsetInCU: 0xA5BF, offset: 0xA5BF, size: 0x8, addend: 0x0, symName: __ZNSt3__1plB8ue170006IcNS_11char_traitsIcEENS_9allocatorIcEEEENS_12basic_stringIT_T0_T1_EERKS9_PKS6_, symObjAddr: 0xDA0, symBinAddr: 0x100002F0C, symSize: 0x11C }
  - { offsetInCU: 0xA660, offset: 0xA660, size: 0x8, addend: 0x0, symName: __ZNSt3__14endlB8ue170006IcNS_11char_traitsIcEEEERNS_13basic_ostreamIT_T0_EES7_, symObjAddr: 0xF0C, symBinAddr: 0x100003078, symSize: 0x58 }
  - { offsetInCU: 0xAADF, offset: 0xAADF, size: 0x8, addend: 0x0, symName: __ZNSt3__1rsB8ue170006IcNS_11char_traitsIcEENS_9allocatorIcEEEERNS_13basic_istreamIT_T0_EES9_RNS_12basic_stringIS6_S7_T1_EE, symObjAddr: 0x114C, symBinAddr: 0x1000032B8, symSize: 0x31C }
  - { offsetInCU: 0xABAE, offset: 0xABAE, size: 0x8, addend: 0x0, symName: __ZNSt3__19remove_ifB8ue170006INS_11__wrap_iterIPcEEZN20WordFrequencyCounter18CountWordFrequencyENS_12basic_stringIcNS_11char_traitsIcEENS_9allocatorIcEEEEEUlcE_EET_SC_SC_T0_, symObjAddr: 0x1500, symBinAddr: 0x10000366C, symSize: 0xFC }
  - { offsetInCU: 0xAC40, offset: 0xAC40, size: 0x8, addend: 0x0, symName: __ZNSt3__19transformB8ue170006INS_11__wrap_iterIPcEES3_PFiiEEET0_T_S7_S6_T1_, symObjAddr: 0x16D8, symBinAddr: 0x100003844, symSize: 0x98 }
  - { offsetInCU: 0xACB1, offset: 0xACB1, size: 0x8, addend: 0x0, symName: __ZNSt3__1neB8ue170006IPNS_12basic_stringIcNS_11char_traitsIcEENS_9allocatorIcEEEEEEbRKNS_11__wrap_iterIT_EESC_, symObjAddr: 0x1800, symBinAddr: 0x10000396C, symSize: 0x34 }
  - { offsetInCU: 0xACF4, offset: 0xACF4, size: 0x8, addend: 0x0, symName: __ZNSt3__14findB8ue170006INS_11__wrap_iterIPNS_12basic_stringIcNS_11char_traitsIcEENS_9allocatorIcEEEEEES7_EET_SA_SA_RKT0_, symObjAddr: 0x1834, symBinAddr: 0x1000039A0, symSize: 0x78 }
  - { offsetInCU: 0xAD5C, offset: 0xAD5C, size: 0x8, addend: 0x0, symName: __ZNSt3__1eqB8ue170006INS_9allocatorIcEEEEbRKNS_12basic_stringIcNS_11char_traitsIcEET_EES9_, symObjAddr: 0x1960, symBinAddr: 0x100003ACC, symSize: 0x148 }
  - { offsetInCU: 0xADCF, offset: 0xADCF, size: 0x8, addend: 0x0, symName: __ZNSt3__14sortB8ue170006INS_11__wrap_iterIP4WordEEZN20WordFrequencyCounter18CountWordFrequencyENS_12basic_stringIcNS_11char_traitsIcEENS_9allocatorIcEEEEEUlS2_S2_E_EEvT_SD_T0_, symObjAddr: 0x1B7C, symBinAddr: 0x100003CE8, symSize: 0x40 }
  - { offsetInCU: 0xB035, offset: 0xB035, size: 0x8, addend: 0x0, symName: __ZNSt3__19use_facetB8ue170006INS_5ctypeIcEEEERKT_RKNS_6localeE, symObjAddr: 0x2580, symBinAddr: 0x1000046EC, symSize: 0x2C }
  - { offsetInCU: 0xB648, offset: 0xB648, size: 0x8, addend: 0x0, symName: __ZNSt3__1miB8ue170006IPKcPcEEDTmicldtfp_4baseEcldtfp0_4baseEERKNS_11__wrap_iterIT_EERKNS5_IT0_EE, symObjAddr: 0x2AF4, symBinAddr: 0x100004C60, symSize: 0x40 }
  - { offsetInCU: 0xB694, offset: 0xB694, size: 0x8, addend: 0x0, symName: __ZNSt3__1miB8ue170006IPKcS2_EEDTmicldtfp_4baseEcldtfp0_4baseEERKNS_11__wrap_iterIT_EERKNS4_IT0_EE, symObjAddr: 0x2B34, symBinAddr: 0x100004CA0, symSize: 0x40 }
  - { offsetInCU: 0xB6E0, offset: 0xB6E0, size: 0x8, addend: 0x0, symName: __ZNSt3__17find_ifB8ue170006INS_11__wrap_iterIPcEERZN20WordFrequencyCounter18CountWordFrequencyENS_12basic_stringIcNS_11char_traitsIcEENS_9allocatorIcEEEEEUlcE_EET_SD_SD_T0_, symObjAddr: 0x2C08, symBinAddr: 0x100004D74, symSize: 0x84 }
  - { offsetInCU: 0xB73A, offset: 0xB73A, size: 0x8, addend: 0x0, symName: __ZNSt3__1neB8ue170006IPcEEbRKNS_11__wrap_iterIT_EES6_, symObjAddr: 0x2C8C, symBinAddr: 0x100004DF8, symSize: 0x34 }
  - { offsetInCU: 0xB77D, offset: 0xB77D, size: 0x8, addend: 0x0, symName: __ZNSt3__1eqB8ue170006IPcEEbRKNS_11__wrap_iterIT_EES6_, symObjAddr: 0x2D2C, symBinAddr: 0x100004E98, symSize: 0x48 }
  - { offsetInCU: 0xB7C0, offset: 0xB7C0, size: 0x8, addend: 0x0, symName: __ZNSt3__112__to_addressB8ue170006INS_12basic_stringIcNS_11char_traitsIcEENS_9allocatorIcEEEEEEPT_S8_, symObjAddr: 0x3250, symBinAddr: 0x1000053BC, symSize: 0x14 }
  - { offsetInCU: 0xB7F5, offset: 0xB7F5, size: 0x8, addend: 0x0, symName: __ZNSt3__13maxB8ue170006ImEERKT_S3_S3_, symObjAddr: 0x3654, symBinAddr: 0x1000057C0, symSize: 0x2C }
  - { offsetInCU: 0xB838, offset: 0xB838, size: 0x8, addend: 0x0, symName: __ZNSt3__13minB8ue170006ImEERKT_S3_S3_, symObjAddr: 0x3680, symBinAddr: 0x1000057EC, symSize: 0x2C }
  - { offsetInCU: 0xB87B, offset: 0xB87B, size: 0x8, addend: 0x0, symName: __ZNSt3__13minB8ue170006ImNS_6__lessIvvEEEERKT_S5_S5_T0_, symObjAddr: 0x36F8, symBinAddr: 0x100005864, symSize: 0x54 }
  - { offsetInCU: 0xB91A, offset: 0xB91A, size: 0x8, addend: 0x0, symName: __ZNSt3__120__throw_length_errorB8ue170006EPKc, symObjAddr: 0x37D0, symBinAddr: 0x10000593C, symSize: 0x64 }
  - { offsetInCU: 0xB944, offset: 0xB944, size: 0x8, addend: 0x0, symName: __ZNSt3__13maxB8ue170006ImNS_6__lessIvvEEEERKT_S5_S5_T0_, symObjAddr: 0x3914, symBinAddr: 0x100005A80, symSize: 0x54 }
  - { offsetInCU: 0xB99E, offset: 0xB99E, size: 0x8, addend: 0x0, symName: __ZNSt3__119__allocate_at_leastB8ue170006INS_9allocatorINS_12basic_stringIcNS_11char_traitsIcEENS1_IcEEEEEEEENS_19__allocation_resultINS_16allocator_traitsIT_E7pointerEEERSA_m, symObjAddr: 0x3A84, symBinAddr: 0x100005BF0, symSize: 0x40 }
  - { offsetInCU: 0xB9E1, offset: 0xB9E1, size: 0x8, addend: 0x0, symName: __ZNSt3__117__libcpp_allocateB8ue170006Emm, symObjAddr: 0x3C0C, symBinAddr: 0x100005D78, symSize: 0x28 }
  - { offsetInCU: 0xBA1E, offset: 0xBA1E, size: 0x8, addend: 0x0, symName: __ZNSt3__121__libcpp_operator_newB8ue170006IJmEEEPvDpT_, symObjAddr: 0x3C34, symBinAddr: 0x100005DA0, symSize: 0x24 }
  - { offsetInCU: 0xBA57, offset: 0xBA57, size: 0x8, addend: 0x0, symName: __ZNSt3__142__uninitialized_allocator_move_if_noexceptB8ue170006INS_9allocatorINS_12basic_stringIcNS_11char_traitsIcEENS1_IcEEEEEENS_16reverse_iteratorIPS6_EESA_SA_EET2_RT_T0_T1_SB_, symObjAddr: 0x3D90, symBinAddr: 0x100005EFC, symSize: 0x12C }
  - { offsetInCU: 0xBAF7, offset: 0xBAF7, size: 0x8, addend: 0x0, symName: __ZNSt3__14swapB8ue170006IPNS_12basic_stringIcNS_11char_traitsIcEENS_9allocatorIcEEEEEENS_9enable_ifIXaasr21is_move_constructibleIT_EE5valuesr18is_move_assignableIS9_EE5valueEvE4typeERS9_SC_, symObjAddr: 0x3F08, symBinAddr: 0x100006074, symSize: 0x3C }
  - { offsetInCU: 0xBB48, offset: 0xBB48, size: 0x8, addend: 0x0, symName: __ZNSt3__122__make_exception_guardB8ue170006INS_29_AllocatorDestroyRangeReverseINS_9allocatorINS_12basic_stringIcNS_11char_traitsIcEENS2_IcEEEEEENS_16reverse_iteratorIPS7_EEEEEENS_28__exception_guard_exceptionsIT_EESE_, symObjAddr: 0x4054, symBinAddr: 0x1000061C0, symSize: 0x4C }
  - { offsetInCU: 0xBB7E, offset: 0xBB7E, size: 0x8, addend: 0x0, symName: __ZNSt3__1neB8ue170006IPNS_12basic_stringIcNS_11char_traitsIcEENS_9allocatorIcEEEES7_EEbRKNS_16reverse_iteratorIT_EERKNS8_IT0_EE, symObjAddr: 0x40E4, symBinAddr: 0x100006250, symSize: 0x48 }
  - { offsetInCU: 0xBBCA, offset: 0xBBCA, size: 0x8, addend: 0x0, symName: __ZNSt3__112__to_addressB8ue170006INS_16reverse_iteratorIPNS_12basic_stringIcNS_11char_traitsIcEENS_9allocatorIcEEEEEEvEEu7__decayIDTclsr19__to_address_helperIT_EE6__callclsr3stdE7declvalIRKSA_EEEEESC_, symObjAddr: 0x4160, symBinAddr: 0x1000062CC, symSize: 0x24 }
  - { offsetInCU: 0xBC29, offset: 0xBC29, size: 0x8, addend: 0x0, symName: __ZNSt3__119__allocator_destroyB8ue170006INS_9allocatorINS_12basic_stringIcNS_11char_traitsIcEENS1_IcEEEEEENS_16reverse_iteratorINS8_IPS6_EEEESB_EEvRT_T0_T1_, symObjAddr: 0x44BC, symBinAddr: 0x100006628, symSize: 0x70 }
  - { offsetInCU: 0xBC8E, offset: 0xBC8E, size: 0x8, addend: 0x0, symName: __ZNSt3__1neB8ue170006INS_16reverse_iteratorIPNS_12basic_stringIcNS_11char_traitsIcEENS_9allocatorIcEEEEEES9_EEbRKNS1_IT_EERKNS1_IT0_EE, symObjAddr: 0x4568, symBinAddr: 0x1000066D4, symSize: 0x60 }
  - { offsetInCU: 0xBCDA, offset: 0xBCDA, size: 0x8, addend: 0x0, symName: __ZNSt3__112__to_addressB8ue170006INS_16reverse_iteratorINS1_IPNS_12basic_stringIcNS_11char_traitsIcEENS_9allocatorIcEEEEEEEEvEEu7__decayIDTclsr19__to_address_helperIT_EE6__callclsr3stdE7declvalIRKSB_EEEEESD_, symObjAddr: 0x45F4, symBinAddr: 0x100006760, symSize: 0x24 }
  - { offsetInCU: 0xBD39, offset: 0xBD39, size: 0x8, addend: 0x0, symName: __ZNSt3__119__libcpp_deallocateB8ue170006EPvmm, symObjAddr: 0x49B0, symBinAddr: 0x100006B1C, symSize: 0x30 }
  - { offsetInCU: 0xBD81, offset: 0xBD81, size: 0x8, addend: 0x0, symName: __ZNSt3__127__do_deallocate_handle_sizeB8ue170006IJEEEvPvmDpT_, symObjAddr: 0x49E0, symBinAddr: 0x100006B4C, symSize: 0x28 }
  - { offsetInCU: 0xBDBF, offset: 0xBDBF, size: 0x8, addend: 0x0, symName: __ZNSt3__124__libcpp_operator_deleteB8ue170006IJPvEEEvDpT_, symObjAddr: 0x4A08, symBinAddr: 0x100006B74, symSize: 0x24 }
  - { offsetInCU: 0xBDF4, offset: 0xBDF4, size: 0x8, addend: 0x0, symName: __ZNSt3__1eqB8ue170006IPNS_12basic_stringIcNS_11char_traitsIcEENS_9allocatorIcEEEEEEbRKNS_11__wrap_iterIT_EESC_, symObjAddr: 0x4A78, symBinAddr: 0x100006BE4, symSize: 0x48 }
  - { offsetInCU: 0xBE37, offset: 0xBE37, size: 0x8, addend: 0x0, symName: __ZNSt3__113__rewrap_iterB8ue170006INS_11__wrap_iterIPNS_12basic_stringIcNS_11char_traitsIcEENS_9allocatorIcEEEEEES8_NS_18__unwrap_iter_implIS9_Lb1EEEEET_SC_T0_, symObjAddr: 0x4AD8, symBinAddr: 0x100006C44, symSize: 0x4C }
  - { offsetInCU: 0xBE8C, offset: 0xBE8C, size: 0x8, addend: 0x0, symName: __ZNSt3__111__find_implB8ue170006IPNS_12basic_stringIcNS_11char_traitsIcEENS_9allocatorIcEEEES7_S6_NS_10__identityEEET_S9_T0_RKT1_RT2_, symObjAddr: 0x4B24, symBinAddr: 0x100006C90, symSize: 0x7C }
  - { offsetInCU: 0xBF06, offset: 0xBF06, size: 0x8, addend: 0x0, symName: __ZNSt3__113__unwrap_iterB8ue170006INS_11__wrap_iterIPNS_12basic_stringIcNS_11char_traitsIcEENS_9allocatorIcEEEEEENS_18__unwrap_iter_implIS9_Lb1EEELi0EEEDTclsrT0_8__unwrapclsr3stdE7declvalIT_EEEESD_, symObjAddr: 0x4BA0, symBinAddr: 0x100006D0C, symSize: 0x2C }
  - { offsetInCU: 0xBF9D, offset: 0xBF9D, size: 0x8, addend: 0x0, symName: __ZNSt3__112__to_addressB8ue170006INS_11__wrap_iterIPNS_12basic_stringIcNS_11char_traitsIcEENS_9allocatorIcEEEEEEvEEu7__decayIDTclsr19__to_address_helperIT_EE6__callclsr3stdE7declvalIRKSA_EEEEESC_, symObjAddr: 0x4C64, symBinAddr: 0x100006DD0, symSize: 0x24 }
  - { offsetInCU: 0xC078, offset: 0xC078, size: 0x8, addend: 0x0, symName: __ZNSt3__18__invokeB8ue170006IRNS_10__identityEJRNS_12basic_stringIcNS_11char_traitsIcEENS_9allocatorIcEEEEEEEDTclclsr3stdE7declvalIT_EEspclsr3stdE7declvalIT0_EEEEOSA_DpOSB_, symObjAddr: 0x4D14, symBinAddr: 0x100006E80, symSize: 0x2C }
  - { offsetInCU: 0xC0F6, offset: 0xC0F6, size: 0x8, addend: 0x0, symName: __ZNSt3__112__to_addressB8ue170006IKcEEPT_S3_, symObjAddr: 0x4E60, symBinAddr: 0x100006FCC, symSize: 0x14 }
  - { offsetInCU: 0xC15E, offset: 0xC15E, size: 0x8, addend: 0x0, symName: __ZNSt3__112__to_addressB8ue170006I4WordEEPT_S3_, symObjAddr: 0x518C, symBinAddr: 0x1000072F8, symSize: 0x14 }
  - { offsetInCU: 0xC193, offset: 0xC193, size: 0x8, addend: 0x0, symName: __ZNSt3__119__allocate_at_leastB8ue170006INS_9allocatorI4WordEEEENS_19__allocation_resultINS_16allocator_traitsIT_E7pointerEEERS6_m, symObjAddr: 0x5804, symBinAddr: 0x100007970, symSize: 0x40 }
  - { offsetInCU: 0xC1D6, offset: 0xC1D6, size: 0x8, addend: 0x0, symName: __ZNSt3__142__uninitialized_allocator_move_if_noexceptB8ue170006INS_9allocatorI4WordEENS_16reverse_iteratorIPS2_EES6_S6_EET2_RT_T0_T1_S7_, symObjAddr: 0x5A8C, symBinAddr: 0x100007BF8, symSize: 0x12C }
  - { offsetInCU: 0xC276, offset: 0xC276, size: 0x8, addend: 0x0, symName: __ZNSt3__14swapB8ue170006IP4WordEENS_9enable_ifIXaasr21is_move_constructibleIT_EE5valuesr18is_move_assignableIS4_EE5valueEvE4typeERS4_S7_, symObjAddr: 0x5C04, symBinAddr: 0x100007D70, symSize: 0x3C }
  - { offsetInCU: 0xC2C7, offset: 0xC2C7, size: 0x8, addend: 0x0, symName: __ZNSt3__122__make_exception_guardB8ue170006INS_29_AllocatorDestroyRangeReverseINS_9allocatorI4WordEENS_16reverse_iteratorIPS3_EEEEEENS_28__exception_guard_exceptionsIT_EESA_, symObjAddr: 0x5D34, symBinAddr: 0x100007EA0, symSize: 0x4C }
  - { offsetInCU: 0xC2FD, offset: 0xC2FD, size: 0x8, addend: 0x0, symName: __ZNSt3__1neB8ue170006IP4WordS2_EEbRKNS_16reverse_iteratorIT_EERKNS3_IT0_EE, symObjAddr: 0x5DC4, symBinAddr: 0x100007F30, symSize: 0x48 }
  - { offsetInCU: 0xC349, offset: 0xC349, size: 0x8, addend: 0x0, symName: __ZNSt3__112__to_addressB8ue170006INS_16reverse_iteratorIP4WordEEvEEu7__decayIDTclsr19__to_address_helperIT_EE6__callclsr3stdE7declvalIRKS5_EEEEES7_, symObjAddr: 0x5E0C, symBinAddr: 0x100007F78, symSize: 0x24 }
  - { offsetInCU: 0xC3A8, offset: 0xC3A8, size: 0x8, addend: 0x0, symName: __ZNSt3__119__allocator_destroyB8ue170006INS_9allocatorI4WordEENS_16reverse_iteratorINS4_IPS2_EEEES7_EEvRT_T0_T1_, symObjAddr: 0x60BC, symBinAddr: 0x100008228, symSize: 0x70 }
  - { offsetInCU: 0xC40D, offset: 0xC40D, size: 0x8, addend: 0x0, symName: __ZNSt3__1neB8ue170006INS_16reverse_iteratorIP4WordEES4_EEbRKNS1_IT_EERKNS1_IT0_EE, symObjAddr: 0x6168, symBinAddr: 0x1000082D4, symSize: 0x60 }
  - { offsetInCU: 0xC459, offset: 0xC459, size: 0x8, addend: 0x0, symName: __ZNSt3__112__to_addressB8ue170006INS_16reverse_iteratorINS1_IP4WordEEEEvEEu7__decayIDTclsr19__to_address_helperIT_EE6__callclsr3stdE7declvalIRKS6_EEEEES8_, symObjAddr: 0x61F4, symBinAddr: 0x100008360, symSize: 0x24 }
  - { offsetInCU: 0xC4B8, offset: 0xC4B8, size: 0x8, addend: 0x0, symName: __ZNSt3__111__sort_implB8ue170006INS_17_ClassicAlgPolicyENS_11__wrap_iterIP4WordEEZN20WordFrequencyCounter18CountWordFrequencyENS_12basic_stringIcNS_11char_traitsIcEENS_9allocatorIcEEEEEUlS3_S3_E_EEvT0_SE_RT1_, symObjAddr: 0x6698, symBinAddr: 0x100008804, symSize: 0xA8 }
  - { offsetInCU: 0xC51B, offset: 0xC51B, size: 0x8, addend: 0x0, symName: __ZNSt3__123__debug_randomize_rangeB8ue170006INS_17_ClassicAlgPolicyENS_11__wrap_iterIP4WordEES5_EEvT0_T1_, symObjAddr: 0x6740, symBinAddr: 0x1000088AC, symSize: 0x14 }
  - { offsetInCU: 0xC56C, offset: 0xC56C, size: 0x8, addend: 0x0, symName: __ZNSt3__115__sort_dispatchB8ue170006INS_17_ClassicAlgPolicyEP4WordZN20WordFrequencyCounter18CountWordFrequencyENS_12basic_stringIcNS_11char_traitsIcEENS_9allocatorIcEEEEEUlS2_S2_E_EEvT0_SC_RT1_, symObjAddr: 0x6754, symBinAddr: 0x1000088C0, symSize: 0x64 }
  - { offsetInCU: 0xC5EA, offset: 0xC5EA, size: 0x8, addend: 0x0, symName: __ZNSt3__113__unwrap_iterB8ue170006INS_11__wrap_iterIP4WordEENS_18__unwrap_iter_implIS4_Lb1EEELi0EEEDTclsrT0_8__unwrapclsr3stdE7declvalIT_EEEES8_, symObjAddr: 0x67B8, symBinAddr: 0x100008924, symSize: 0x2C }
  - { offsetInCU: 0xC62E, offset: 0xC62E, size: 0x8, addend: 0x0, symName: __ZNSt3__135__check_strict_weak_ordering_sortedB8ue170006IP4WordZN20WordFrequencyCounter18CountWordFrequencyENS_12basic_stringIcNS_11char_traitsIcEENS_9allocatorIcEEEEEUlS1_S1_E_EEvT_SB_RT0_, symObjAddr: 0x67E4, symBinAddr: 0x100008950, symSize: 0x18 }
  - { offsetInCU: 0xC684, offset: 0xC684, size: 0x8, addend: 0x0, symName: __ZNSt3__17__log2iB8ue170006IlEET_S1_, symObjAddr: 0x67FC, symBinAddr: 0x100008968, symSize: 0x54 }
  - { offsetInCU: 0xC6BB, offset: 0xC6BB, size: 0x8, addend: 0x0, symName: __ZNSt3__112__libcpp_clzB8ue170006Em, symObjAddr: 0x6EC8, symBinAddr: 0x100009034, symSize: 0x1C }
  - { offsetInCU: 0xC7D1, offset: 0xC7D1, size: 0x8, addend: 0x0, symName: __ZNSt3__124__sort3_maybe_branchlessB8ue170006INS_17_ClassicAlgPolicyERZN20WordFrequencyCounter18CountWordFrequencyENS_12basic_stringIcNS_11char_traitsIcEENS_9allocatorIcEEEEEUl4WordS9_E_PS9_EENS_9enable_ifIXntsr21__use_branchless_sortIT0_T1_EE5valueEvE4typeESF_SF_SF_SE_, symObjAddr: 0x6F80, symBinAddr: 0x1000090EC, symSize: 0x3C }
  - { offsetInCU: 0xC842, offset: 0xC842, size: 0x8, addend: 0x0, symName: __ZNSt3__124__sort4_maybe_branchlessB8ue170006INS_17_ClassicAlgPolicyERZN20WordFrequencyCounter18CountWordFrequencyENS_12basic_stringIcNS_11char_traitsIcEENS_9allocatorIcEEEEEUl4WordS9_E_PS9_EENS_9enable_ifIXntsr21__use_branchless_sortIT0_T1_EE5valueEvE4typeESF_SF_SF_SF_SE_, symObjAddr: 0x6FBC, symBinAddr: 0x100009128, symSize: 0x44 }
  - { offsetInCU: 0xC8C1, offset: 0xC8C1, size: 0x8, addend: 0x0, symName: __ZNSt3__124__sort5_maybe_branchlessB8ue170006INS_17_ClassicAlgPolicyERZN20WordFrequencyCounter18CountWordFrequencyENS_12basic_stringIcNS_11char_traitsIcEENS_9allocatorIcEEEEEUl4WordS9_E_PS9_EENS_9enable_ifIXntsr21__use_branchless_sortIT0_T1_EE5valueEvE4typeESF_SF_SF_SF_SF_SE_, symObjAddr: 0x7000, symBinAddr: 0x10000916C, symSize: 0x4C }
  - { offsetInCU: 0xC94E, offset: 0xC94E, size: 0x8, addend: 0x0, symName: __ZNSt3__116__insertion_sortB8ue170006INS_17_ClassicAlgPolicyERZN20WordFrequencyCounter18CountWordFrequencyENS_12basic_stringIcNS_11char_traitsIcEENS_9allocatorIcEEEEEUl4WordS9_E_PS9_EEvT1_SD_T0_, symObjAddr: 0x704C, symBinAddr: 0x1000091B8, symSize: 0x2F0 }
  - { offsetInCU: 0xCA03, offset: 0xCA03, size: 0x8, addend: 0x0, symName: __ZNSt3__114__partial_sortB8ue170006INS_17_ClassicAlgPolicyERZN20WordFrequencyCounter18CountWordFrequencyENS_12basic_stringIcNS_11char_traitsIcEENS_9allocatorIcEEEEEUl4WordS9_E_PS9_SC_EET1_SD_SD_T2_RT0_, symObjAddr: 0x7564, symBinAddr: 0x1000096D0, symSize: 0x94 }
  - { offsetInCU: 0xCA8B, offset: 0xCA8B, size: 0x8, addend: 0x0, symName: __ZNSt3__17__sort3B8ue170006INS_17_ClassicAlgPolicyERZN20WordFrequencyCounter18CountWordFrequencyENS_12basic_stringIcNS_11char_traitsIcEENS_9allocatorIcEEEEEUl4WordS9_E_PS9_EEjT1_SD_SD_T0_, symObjAddr: 0x75F8, symBinAddr: 0x100009764, symSize: 0x334 }
  - { offsetInCU: 0xCB0A, offset: 0xCB0A, size: 0x8, addend: 0x0, symName: __ZNSt3__19iter_swapB8ue170006IP4WordS2_EEvT_T0_, symObjAddr: 0x8E1C, symBinAddr: 0x10000AF88, symSize: 0x2C }
  - { offsetInCU: 0xCB52, offset: 0xCB52, size: 0x8, addend: 0x0, symName: __ZNSt3__14swapB8ue170006I4WordEENS_9enable_ifIXaasr21is_move_constructibleIT_EE5valuesr18is_move_assignableIS3_EE5valueEvE4typeERS3_S6_, symObjAddr: 0x8E48, symBinAddr: 0x10000AFB4, symSize: 0x50 }
  - { offsetInCU: 0xCBA3, offset: 0xCBA3, size: 0x8, addend: 0x0, symName: __ZNSt3__17__sort4B8ue170006INS_17_ClassicAlgPolicyERZN20WordFrequencyCounter18CountWordFrequencyENS_12basic_stringIcNS_11char_traitsIcEENS_9allocatorIcEEEEEUl4WordS9_E_PS9_EEvT1_SD_SD_SD_T0_, symObjAddr: 0x9138, symBinAddr: 0x10000B2A4, symSize: 0x1E8 }
  - { offsetInCU: 0xCC1E, offset: 0xCC1E, size: 0x8, addend: 0x0, symName: __ZNSt3__17__sort5B8ue170006INS_17_ClassicAlgPolicyERZN20WordFrequencyCounter18CountWordFrequencyENS_12basic_stringIcNS_11char_traitsIcEENS_9allocatorIcEEEEEUl4WordS9_E_PS9_EEvT1_SD_SD_SD_SD_T0_, symObjAddr: 0x9320, symBinAddr: 0x10000B48C, symSize: 0x278 }
  - { offsetInCU: 0xCCCB, offset: 0xCCCB, size: 0x8, addend: 0x0, symName: __ZNSt3__123__debug_randomize_rangeB8ue170006INS_17_ClassicAlgPolicyEP4WordS3_EEvT0_T1_, symObjAddr: 0x95DC, symBinAddr: 0x10000B748, symSize: 0x14 }
  - { offsetInCU: 0xCD1C, offset: 0xCD1C, size: 0x8, addend: 0x0, symName: __ZNSt3__119__partial_sort_implB8ue170006INS_17_ClassicAlgPolicyERZN20WordFrequencyCounter18CountWordFrequencyENS_12basic_stringIcNS_11char_traitsIcEENS_9allocatorIcEEEEEUl4WordS9_E_PS9_SC_EET1_SD_SD_T2_OT0_, symObjAddr: 0x95F0, symBinAddr: 0x10000B75C, symSize: 0x178 }
  - { offsetInCU: 0xCDB2, offset: 0xCDB2, size: 0x8, addend: 0x0, symName: __ZNSt3__111__make_heapB8ue170006INS_17_ClassicAlgPolicyERZN20WordFrequencyCounter18CountWordFrequencyENS_12basic_stringIcNS_11char_traitsIcEENS_9allocatorIcEEEEEUl4WordS9_E_PS9_EEvT1_SD_OT0_, symObjAddr: 0x9768, symBinAddr: 0x10000B8D4, symSize: 0xB8 }
  - { offsetInCU: 0xCE54, offset: 0xCE54, size: 0x8, addend: 0x0, symName: __ZNSt3__111__sort_heapB8ue170006INS_17_ClassicAlgPolicyERZN20WordFrequencyCounter18CountWordFrequencyENS_12basic_stringIcNS_11char_traitsIcEENS_9allocatorIcEEEEEUl4WordS9_E_PS9_EEvT1_SD_OT0_, symObjAddr: 0x9CE8, symBinAddr: 0x10000BE54, symSize: 0xA8 }
  - { offsetInCU: 0xCEF6, offset: 0xCEF6, size: 0x8, addend: 0x0, symName: __ZNSt3__110__pop_heapB8ue170006INS_17_ClassicAlgPolicyEZN20WordFrequencyCounter18CountWordFrequencyENS_12basic_stringIcNS_11char_traitsIcEENS_9allocatorIcEEEEEUl4WordS9_E_PS9_EEvT1_SC_RT0_NS_15iterator_traitsISC_E15difference_typeE, symObjAddr: 0x9D90, symBinAddr: 0x10000BEFC, symSize: 0x138 }
  - { offsetInCU: 0xCF9E, offset: 0xCF9E, size: 0x8, addend: 0x0, symName: __ZNSt3__19__sift_upB8ue170006INS_17_ClassicAlgPolicyERZN20WordFrequencyCounter18CountWordFrequencyENS_12basic_stringIcNS_11char_traitsIcEENS_9allocatorIcEEEEEUl4WordS9_E_PS9_EEvT1_SD_OT0_NS_15iterator_traitsISD_E15difference_typeE, symObjAddr: 0xA0A8, symBinAddr: 0x10000C214, symSize: 0x224 }
  - { offsetInCU: 0xD03F, offset: 0xD03F, size: 0x8, addend: 0x0, symName: __ZNSt3__122__populate_left_bitsetB8ue170006IRZN20WordFrequencyCounter18CountWordFrequencyENS_12basic_stringIcNS_11char_traitsIcEENS_9allocatorIcEEEEEUl4WordS8_E_PS8_S8_EEvT0_T_RT1_Ry, symObjAddr: 0xA2CC, symBinAddr: 0x10000C438, symSize: 0x118 }
  - { offsetInCU: 0xD0EA, offset: 0xD0EA, size: 0x8, addend: 0x0, symName: __ZNSt3__123__populate_right_bitsetB8ue170006IRZN20WordFrequencyCounter18CountWordFrequencyENS_12basic_stringIcNS_11char_traitsIcEENS_9allocatorIcEEEEEUl4WordS8_E_PS8_S8_EEvT0_T_RT1_Ry, symObjAddr: 0xA3E4, symBinAddr: 0x10000C550, symSize: 0x108 }
  - { offsetInCU: 0xD195, offset: 0xD195, size: 0x8, addend: 0x0, symName: __ZNSt3__117__swap_bitmap_posB8ue170006INS_17_ClassicAlgPolicyEP4WordEEvT0_S4_RyS5_, symObjAddr: 0xA4EC, symBinAddr: 0x10000C658, symSize: 0x100 }
  - { offsetInCU: 0xD236, offset: 0xD236, size: 0x8, addend: 0x0, symName: __ZNSt3__133__bitset_partition_partial_blocksB8ue170006INS_17_ClassicAlgPolicyERZN20WordFrequencyCounter18CountWordFrequencyENS_12basic_stringIcNS_11char_traitsIcEENS_9allocatorIcEEEEEUl4WordS9_E_PS9_S9_EEvRT1_SE_T0_RT2_RySI_, symObjAddr: 0xA5EC, symBinAddr: 0x10000C758, symSize: 0x3C0 }
  - { offsetInCU: 0xD39F, offset: 0xD39F, size: 0x8, addend: 0x0, symName: __ZNSt3__19make_pairB8ue170006IRP4WordRbEENS_4pairINS_18__unwrap_ref_decayIT_E4typeENS6_IT0_E4typeEEEOS7_OSA_, symObjAddr: 0xAB8C, symBinAddr: 0x10000CCF8, symSize: 0x38 }
  - { offsetInCU: 0xD3EE, offset: 0xD3EE, size: 0x8, addend: 0x0, symName: __ZNSt3__112__libcpp_ctzB8ue170006Ey, symObjAddr: 0xABC4, symBinAddr: 0x10000CD30, symSize: 0x20 }
  - { offsetInCU: 0xD41A, offset: 0xD41A, size: 0x8, addend: 0x0, symName: __ZNSt3__113__libcpp_blsrB8ue170006Ey, symObjAddr: 0xABE4, symBinAddr: 0x10000CD50, symSize: 0x2C }
  - { offsetInCU: 0xD446, offset: 0xD446, size: 0x8, addend: 0x0, symName: __ZNSt3__112__libcpp_clzB8ue170006Ey, symObjAddr: 0xAC44, symBinAddr: 0x10000CDB0, symSize: 0x1C }
  - { offsetInCU: 0xD599, offset: 0xD599, size: 0x8, addend: 0x0, symName: __ZNSt3__112__to_addressB8ue170006INS_11__wrap_iterIP4WordEEvEEu7__decayIDTclsr19__to_address_helperIT_EE6__callclsr3stdE7declvalIRKS5_EEEEES7_, symObjAddr: 0xACFC, symBinAddr: 0x10000CE68, symSize: 0x24 }
  - { offsetInCU: 0xD674, offset: 0xD674, size: 0x8, addend: 0x0, symName: __ZNSt3__118__constexpr_strlenB8ue170006EPKc, symObjAddr: 0xB67C, symBinAddr: 0x10000D7E8, symSize: 0x24 }
  - { offsetInCU: 0xD6A0, offset: 0xD6A0, size: 0x8, addend: 0x0, symName: __ZNSt3__112__to_addressB8ue170006IcEEPT_S2_, symObjAddr: 0xB970, symBinAddr: 0x10000DADC, symSize: 0x14 }
  - { offsetInCU: 0xD6D5, offset: 0xD6D5, size: 0x8, addend: 0x0, symName: __ZNSt3__14copyB8ue170006IPKcPcEET0_T_S5_S4_, symObjAddr: 0xBD78, symBinAddr: 0x10000DEE4, symSize: 0x40 }
  - { offsetInCU: 0xD72F, offset: 0xD72F, size: 0x8, addend: 0x0, symName: __ZNSt3__16__copyB8ue170006INS_17_ClassicAlgPolicyEPKcS3_PcEENS_4pairIT0_T2_EES6_T1_S7_, symObjAddr: 0xBDB8, symBinAddr: 0x10000DF24, symSize: 0x44 }
  - { offsetInCU: 0xD79B, offset: 0xD79B, size: 0x8, addend: 0x0, symName: __ZNSt3__123__dispatch_copy_or_moveB8ue170006INS_17_ClassicAlgPolicyENS_11__copy_loopIS1_EENS_14__copy_trivialEPKcS6_PcEENS_4pairIT2_T4_EES9_T3_SA_, symObjAddr: 0xBDFC, symBinAddr: 0x10000DF68, symSize: 0x44 }
  - { offsetInCU: 0xD819, offset: 0xD819, size: 0x8, addend: 0x0, symName: __ZNSt3__121__unwrap_and_dispatchB8ue170006INS_10__overloadINS_11__copy_loopINS_17_ClassicAlgPolicyEEENS_14__copy_trivialEEEPKcS8_PcLi0EEENS_4pairIT0_T2_EESB_T1_SC_, symObjAddr: 0xBE40, symBinAddr: 0x10000DFAC, symSize: 0xB4 }
  - { offsetInCU: 0xD8A7, offset: 0xD8A7, size: 0x8, addend: 0x0, symName: __ZNSt3__114__unwrap_rangeB8ue170006IPKcS2_EENS_4pairIT0_S4_EET_S6_, symObjAddr: 0xBEF4, symBinAddr: 0x10000E060, symSize: 0x60 }
  - { offsetInCU: 0xDA3C, offset: 0xDA3C, size: 0x8, addend: 0x0, symName: __ZNSt3__113__unwrap_iterB8ue170006IPcNS_18__unwrap_iter_implIS1_Lb1EEELi0EEEDTclsrT0_8__unwrapclsr3stdE7declvalIT_EEEES5_, symObjAddr: 0xBF9C, symBinAddr: 0x10000E108, symSize: 0x24 }
  - { offsetInCU: 0xDA80, offset: 0xDA80, size: 0x8, addend: 0x0, symName: __ZNSt3__19make_pairB8ue170006IPKcPcEENS_4pairINS_18__unwrap_ref_decayIT_E4typeENS5_IT0_E4typeEEEOS6_OS9_, symObjAddr: 0xBFC0, symBinAddr: 0x10000E12C, symSize: 0x38 }
  - { offsetInCU: 0xDACF, offset: 0xDACF, size: 0x8, addend: 0x0, symName: __ZNSt3__114__rewrap_rangeB8ue170006IPKcS2_EET_S3_T0_, symObjAddr: 0xBFF8, symBinAddr: 0x10000E164, symSize: 0x2C }
  - { offsetInCU: 0xDB1B, offset: 0xDB1B, size: 0x8, addend: 0x0, symName: __ZNSt3__113__rewrap_iterB8ue170006IPcS1_NS_18__unwrap_iter_implIS1_Lb1EEEEET_S4_T0_, symObjAddr: 0xC024, symBinAddr: 0x10000E190, symSize: 0x3C }
  - { offsetInCU: 0xDB70, offset: 0xDB70, size: 0x8, addend: 0x0, symName: __ZNSt3__19make_pairB8ue170006IPKcS2_EENS_4pairINS_18__unwrap_ref_decayIT_E4typeENS4_IT0_E4typeEEEOS5_OS8_, symObjAddr: 0xC060, symBinAddr: 0x10000E1CC, symSize: 0x38 }
  - { offsetInCU: 0xDBBF, offset: 0xDBBF, size: 0x8, addend: 0x0, symName: __ZNSt3__113__unwrap_iterB8ue170006IPKcNS_18__unwrap_iter_implIS2_Lb1EEELi0EEEDTclsrT0_8__unwrapclsr3stdE7declvalIT_EEEES6_, symObjAddr: 0xC098, symBinAddr: 0x10000E204, symSize: 0x24 }
  - { offsetInCU: 0xDD2A, offset: 0xDD2A, size: 0x8, addend: 0x0, symName: __ZNSt3__119__copy_trivial_implB8ue170006IKccEENS_4pairIPT_PT0_EES4_S4_S6_, symObjAddr: 0xC150, symBinAddr: 0x10000E2BC, symSize: 0x78 }
  - { offsetInCU: 0xDD92, offset: 0xDD92, size: 0x8, addend: 0x0, symName: __ZNSt3__119__constexpr_memmoveB8ue170006IcKcLi0EEEPT_S3_PT0_NS_15__element_countE, symObjAddr: 0xC1C8, symBinAddr: 0x10000E334, symSize: 0x64 }
  - { offsetInCU: 0xDE00, offset: 0xDE00, size: 0x8, addend: 0x0, symName: __ZNSt3__19make_pairB8ue170006IRPKcPcEENS_4pairINS_18__unwrap_ref_decayIT_E4typeENS6_IT0_E4typeEEEOS7_OSA_, symObjAddr: 0xC22C, symBinAddr: 0x10000E398, symSize: 0x38 }
  - { offsetInCU: 0xDEA2, offset: 0xDEA2, size: 0x8, addend: 0x0, symName: __ZNSt3__113__rewrap_iterB8ue170006IPKcS2_NS_18__unwrap_iter_implIS2_Lb1EEEEET_S5_T0_, symObjAddr: 0xC368, symBinAddr: 0x10000E4D4, symSize: 0x3C }
  - { offsetInCU: 0xDEF7, offset: 0xDEF7, size: 0x8, addend: 0x0, symName: __ZNSt3__16fill_nB8ue170006IPcmcEET_S2_T0_RKT1_, symObjAddr: 0xC434, symBinAddr: 0x10000E5A0, symSize: 0x44 }
  - { offsetInCU: 0xDF5A, offset: 0xDF5A, size: 0x8, addend: 0x0, symName: __ZNSt3__18__fill_nB8ue170006IPcmcEET_S2_T0_RKT1_, symObjAddr: 0xC478, symBinAddr: 0x10000E5E4, symSize: 0x64 }
  - { offsetInCU: 0xDFBD, offset: 0xDFBD, size: 0x8, addend: 0x0, symName: __ZNSt3__121__convert_to_integralB8ue170006Em, symObjAddr: 0xC4DC, symBinAddr: 0x10000E648, symSize: 0x14 }
  - { offsetInCU: 0xDFE9, offset: 0xDFE9, size: 0x8, addend: 0x0, symName: __ZNSt3__116__pad_and_outputB8ue170006IcNS_11char_traitsIcEEEENS_19ostreambuf_iteratorIT_T0_EES6_PKS4_S8_S8_RNS_8ios_baseES4_, symObjAddr: 0xC744, symBinAddr: 0x10000E8B0, symSize: 0x240 }
  - { offsetInCU: 0xE474, offset: 0xE474, size: 0x8, addend: 0x0, symName: __ZSt28__throw_bad_array_new_lengthB8ue170006v, symObjAddr: 0x3BD8, symBinAddr: 0x100005D44, symSize: 0x34 }
  - { offsetInCU: 0xE981, offset: 0xE981, size: 0x8, addend: 0x0, symName: __ZNSt3__16vectorINS_12basic_stringIcNS_11char_traitsIcEENS_9allocatorIcEEEENS4_IS6_EEE26__swap_out_circular_bufferERNS_14__split_bufferIS6_RS7_EE, symObjAddr: 0x345C, symBinAddr: 0x1000055C8, symSize: 0x110 }
  - { offsetInCU: 0xEC2E, offset: 0xEC2E, size: 0x8, addend: 0x0, symName: __ZNSt3__16vectorI4WordNS_9allocatorIS1_EEE26__swap_out_circular_bufferERNS_14__split_bufferIS1_RS3_EE, symObjAddr: 0x5404, symBinAddr: 0x100007570, symSize: 0x110 }
  - { offsetInCU: 0xF564, offset: 0xF564, size: 0x8, addend: 0x0, symName: __Z7isalphai, symObjAddr: 0x2D74, symBinAddr: 0x100004EE0, symSize: 0x28 }
  - { offsetInCU: 0xF666, offset: 0xF666, size: 0x8, addend: 0x0, symName: __Z7toloweri, symObjAddr: 0x1770, symBinAddr: 0x1000038DC, symSize: 0x24 }
  - { offsetInCU: 0x110FC, offset: 0x110FC, size: 0x8, addend: 0x0, symName: _main, symObjAddr: 0x0, symBinAddr: 0x10000216C, symSize: 0x418 }
  - { offsetInCU: 0x112A9, offset: 0x112A9, size: 0x8, addend: 0x0, symName: __ZNSt3__114basic_ifstreamIcNS_11char_traitsIcEEEC1EPKcj, symObjAddr: 0x418, symBinAddr: 0x100002584, symSize: 0x16C }
  - { offsetInCU: 0x1130B, offset: 0x1130B, size: 0x8, addend: 0x0, symName: __ZNSt3__114basic_ofstreamIcNS_11char_traitsIcEEEC1EPKcj, symObjAddr: 0x584, symBinAddr: 0x1000026F0, symSize: 0x16C }
  - { offsetInCU: 0x11359, offset: 0x11359, size: 0x8, addend: 0x0, symName: __ZNSt3__112basic_stringIcNS_11char_traitsIcEENS_9allocatorIcEEEC1B8ue170006ILi0EEEPKc, symObjAddr: 0x6F0, symBinAddr: 0x10000285C, symSize: 0x34 }
  - { offsetInCU: 0x11397, offset: 0x11397, size: 0x8, addend: 0x0, symName: __ZNKSt3__19basic_iosIcNS_11char_traitsIcEEEcvbB8ue170006Ev, symObjAddr: 0x724, symBinAddr: 0x100002890, symSize: 0x2C }
  - { offsetInCU: 0x113BC, offset: 0x113BC, size: 0x8, addend: 0x0, symName: __ZNSt3__112basic_stringIcNS_11char_traitsIcEENS_9allocatorIcEEEpLB8ue170006Ec, symObjAddr: 0x750, symBinAddr: 0x1000028BC, symSize: 0x34 }
  - { offsetInCU: 0x113F0, offset: 0x113F0, size: 0x8, addend: 0x0, symName: __ZNSt3__16vectorI4WordNS_9allocatorIS1_EEEC1B8ue170006Ev, symObjAddr: 0x784, symBinAddr: 0x1000028F0, symSize: 0x2C }
  - { offsetInCU: 0x11443, offset: 0x11443, size: 0x8, addend: 0x0, symName: __ZN20WordFrequencyCounter18CountWordFrequencyENSt3__112basic_stringIcNS0_11char_traitsIcEENS0_9allocatorIcEEEE, symObjAddr: 0x7B0, symBinAddr: 0x10000291C, symSize: 0x4DC }
  - { offsetInCU: 0x1155C, offset: 0x1155C, size: 0x8, addend: 0x0, symName: __ZNSt3__16vectorI4WordNS_9allocatorIS1_EEEaSB8ue170006EOS4_, symObjAddr: 0xC8C, symBinAddr: 0x100002DF8, symSize: 0x34 }
  - { offsetInCU: 0x11591, offset: 0x11591, size: 0x8, addend: 0x0, symName: __ZNSt3__16vectorI4WordNS_9allocatorIS1_EEED1B8ue170006Ev, symObjAddr: 0xCC0, symBinAddr: 0x100002E2C, symSize: 0x2C }
  - { offsetInCU: 0x115BA, offset: 0x115BA, size: 0x8, addend: 0x0, symName: __ZNKSt3__16vectorI4WordNS_9allocatorIS1_EEE4sizeB8ue170006Ev, symObjAddr: 0xCEC, symBinAddr: 0x100002E58, symSize: 0x28 }
  - { offsetInCU: 0x115DF, offset: 0x115DF, size: 0x8, addend: 0x0, symName: __ZNSt3__16vectorI4WordNS_9allocatorIS1_EEEixB8ue170006Em, symObjAddr: 0xEBC, symBinAddr: 0x100003028, symSize: 0x24 }
  - { offsetInCU: 0x11615, offset: 0x11615, size: 0x8, addend: 0x0, symName: __ZNSt3__113basic_ostreamIcNS_11char_traitsIcEEElsB8ue170006EPFRS3_S4_E, symObjAddr: 0xEE0, symBinAddr: 0x10000304C, symSize: 0x2C }
  - { offsetInCU: 0x1164D, offset: 0x1164D, size: 0x8, addend: 0x0, symName: __ZNSt3__114basic_ofstreamIcNS_11char_traitsIcEEED1Ev, symObjAddr: 0xF64, symBinAddr: 0x1000030D0, symSize: 0x40 }
  - { offsetInCU: 0x1167E, offset: 0x1167E, size: 0x8, addend: 0x0, symName: __ZNSt3__114basic_ifstreamIcNS_11char_traitsIcEEED1Ev, symObjAddr: 0xFA4, symBinAddr: 0x100003110, symSize: 0x40 }
  - { offsetInCU: 0x116AA, offset: 0x116AA, size: 0x8, addend: 0x0, symName: __ZNSt3__16vectorINS_12basic_stringIcNS_11char_traitsIcEENS_9allocatorIcEEEENS4_IS6_EEEC1B8ue170006Ev, symObjAddr: 0xFE4, symBinAddr: 0x100003150, symSize: 0x2C }
  - { offsetInCU: 0x11732, offset: 0x11732, size: 0x8, addend: 0x0, symName: __ZNSt3__118basic_stringstreamIcNS_11char_traitsIcEENS_9allocatorIcEEEC1B8ue170006ERKNS_12basic_stringIcS2_S4_EEj, symObjAddr: 0x1010, symBinAddr: 0x10000317C, symSize: 0x110 }
  - { offsetInCU: 0x11779, offset: 0x11779, size: 0x8, addend: 0x0, symName: __ZNSt3__112basic_stringIcNS_11char_traitsIcEENS_9allocatorIcEEEC1B8ue170006Ev, symObjAddr: 0x1120, symBinAddr: 0x10000328C, symSize: 0x2C }
  - { offsetInCU: 0x117A2, offset: 0x117A2, size: 0x8, addend: 0x0, symName: __ZNSt3__112basic_stringIcNS_11char_traitsIcEENS_9allocatorIcEEE5eraseB8ue170006ENS_11__wrap_iterIPKcEES9_, symObjAddr: 0x1468, symBinAddr: 0x1000035D4, symSize: 0x98 }
  - { offsetInCU: 0x11804, offset: 0x11804, size: 0x8, addend: 0x0, symName: __ZNSt3__112basic_stringIcNS_11char_traitsIcEENS_9allocatorIcEEE5beginB8ue170006Ev, symObjAddr: 0x15FC, symBinAddr: 0x100003768, symSize: 0x4C }
  - { offsetInCU: 0x11829, offset: 0x11829, size: 0x8, addend: 0x0, symName: __ZNSt3__112basic_stringIcNS_11char_traitsIcEENS_9allocatorIcEEE3endB8ue170006Ev, symObjAddr: 0x1648, symBinAddr: 0x1000037B4, symSize: 0x54 }
  - { offsetInCU: 0x11858, offset: 0x11858, size: 0x8, addend: 0x0, symName: __ZNSt3__111__wrap_iterIPKcEC1B8ue170006IPcEERKNS0_IT_EEPNS_9enable_ifIXsr14is_convertibleIS6_S2_EE5valueEvE4typeE, symObjAddr: 0x169C, symBinAddr: 0x100003808, symSize: 0x3C }
  - { offsetInCU: 0x118A3, offset: 0x118A3, size: 0x8, addend: 0x0, symName: __ZNSt3__16vectorINS_12basic_stringIcNS_11char_traitsIcEENS_9allocatorIcEEEENS4_IS6_EEE9push_backB8ue170006ERKS6_, symObjAddr: 0x1794, symBinAddr: 0x100003900, symSize: 0x6C }
  - { offsetInCU: 0x118D8, offset: 0x118D8, size: 0x8, addend: 0x0, symName: __ZNSt3__16vectorINS_12basic_stringIcNS_11char_traitsIcEENS_9allocatorIcEEEENS4_IS6_EEE5beginB8ue170006Ev, symObjAddr: 0x18AC, symBinAddr: 0x100003A18, symSize: 0x30 }
  - { offsetInCU: 0x118FE, offset: 0x118FE, size: 0x8, addend: 0x0, symName: __ZNSt3__16vectorINS_12basic_stringIcNS_11char_traitsIcEENS_9allocatorIcEEEENS4_IS6_EEE3endB8ue170006Ev, symObjAddr: 0x18DC, symBinAddr: 0x100003A48, symSize: 0x30 }
  - { offsetInCU: 0x11924, offset: 0x11924, size: 0x8, addend: 0x0, symName: __ZNSt3__16vectorINS_12basic_stringIcNS_11char_traitsIcEENS_9allocatorIcEEEENS4_IS6_EEEixB8ue170006Em, symObjAddr: 0x190C, symBinAddr: 0x100003A78, symSize: 0x2C }
  - { offsetInCU: 0x1195A, offset: 0x1195A, size: 0x8, addend: 0x0, symName: __ZNKSt3__16vectorINS_12basic_stringIcNS_11char_traitsIcEENS_9allocatorIcEEEENS4_IS6_EEE4sizeB8ue170006Ev, symObjAddr: 0x1938, symBinAddr: 0x100003AA4, symSize: 0x28 }
  - { offsetInCU: 0x1197F, offset: 0x1197F, size: 0x8, addend: 0x0, symName: __ZNSt3__16vectorI4WordNS_9allocatorIS1_EEE9push_backB8ue170006EOS1_, symObjAddr: 0x1AA8, symBinAddr: 0x100003C14, symSize: 0x6C }
  - { offsetInCU: 0x119B4, offset: 0x119B4, size: 0x8, addend: 0x0, symName: __ZN4WordC1ENSt3__112basic_stringIcNS0_11char_traitsIcEENS0_9allocatorIcEEEEi, symObjAddr: 0x1B14, symBinAddr: 0x100003C80, symSize: 0x3C }
  - { offsetInCU: 0x119FA, offset: 0x119FA, size: 0x8, addend: 0x0, symName: __ZN4WordD1Ev, symObjAddr: 0x1B50, symBinAddr: 0x100003CBC, symSize: 0x2C }
  - { offsetInCU: 0x11A25, offset: 0x11A25, size: 0x8, addend: 0x0, symName: __ZNSt3__16vectorI4WordNS_9allocatorIS1_EEE5beginB8ue170006Ev, symObjAddr: 0x1BBC, symBinAddr: 0x100003D28, symSize: 0x30 }
  - { offsetInCU: 0x11A4B, offset: 0x11A4B, size: 0x8, addend: 0x0, symName: __ZNSt3__16vectorI4WordNS_9allocatorIS1_EEE3endB8ue170006Ev, symObjAddr: 0x1BEC, symBinAddr: 0x100003D58, symSize: 0x30 }
  - { offsetInCU: 0x11A76, offset: 0x11A76, size: 0x8, addend: 0x0, symName: __ZNSt3__118basic_stringstreamIcNS_11char_traitsIcEENS_9allocatorIcEEED1Ev, symObjAddr: 0x1C1C, symBinAddr: 0x100003D88, symSize: 0x40 }
  - { offsetInCU: 0x11AA2, offset: 0x11AA2, size: 0x8, addend: 0x0, symName: __ZNSt3__16vectorINS_12basic_stringIcNS_11char_traitsIcEENS_9allocatorIcEEEENS4_IS6_EEED1B8ue170006Ev, symObjAddr: 0x1C5C, symBinAddr: 0x100003DC8, symSize: 0x2C }
  - { offsetInCU: 0x11ACB, offset: 0x11ACB, size: 0x8, addend: 0x0, symName: __ZNSt3__16vectorINS_12basic_stringIcNS_11char_traitsIcEENS_9allocatorIcEEEENS4_IS6_EEEC2B8ue170006Ev, symObjAddr: 0x1C88, symBinAddr: 0x100003DF4, symSize: 0x4C }
  - { offsetInCU: 0x11AFE, offset: 0x11AFE, size: 0x8, addend: 0x0, symName: __ZNSt3__117__compressed_pairIPNS_12basic_stringIcNS_11char_traitsIcEENS_9allocatorIcEEEENS4_IS6_EEEC1B8ue170006IDnNS_18__default_init_tagEEEOT_OT0_, symObjAddr: 0x1CD4, symBinAddr: 0x100003E40, symSize: 0x3C }
  - { offsetInCU: 0x11B55, offset: 0x11B55, size: 0x8, addend: 0x0, symName: __ZNSt3__117__compressed_pairIPNS_12basic_stringIcNS_11char_traitsIcEENS_9allocatorIcEEEENS4_IS6_EEEC2B8ue170006IDnNS_18__default_init_tagEEEOT_OT0_, symObjAddr: 0x1D1C, symBinAddr: 0x100003E88, symSize: 0x40 }
  - { offsetInCU: 0x11BAC, offset: 0x11BAC, size: 0x8, addend: 0x0, symName: __ZNSt3__122__compressed_pair_elemIPNS_12basic_stringIcNS_11char_traitsIcEENS_9allocatorIcEEEELi0ELb0EEC2B8ue170006IDnvEEOT_, symObjAddr: 0x1D5C, symBinAddr: 0x100003EC8, symSize: 0x1C }
  - { offsetInCU: 0x11BED, offset: 0x11BED, size: 0x8, addend: 0x0, symName: __ZNSt3__122__compressed_pair_elemINS_9allocatorINS_12basic_stringIcNS_11char_traitsIcEENS1_IcEEEEEELi1ELb1EEC2B8ue170006ENS_18__default_init_tagE, symObjAddr: 0x1D78, symBinAddr: 0x100003EE4, symSize: 0x2C }
  - { offsetInCU: 0x11C21, offset: 0x11C21, size: 0x8, addend: 0x0, symName: __ZNSt3__19allocatorINS_12basic_stringIcNS_11char_traitsIcEENS0_IcEEEEEC2B8ue170006Ev, symObjAddr: 0x1DA4, symBinAddr: 0x100003F10, symSize: 0x2C }
  - { offsetInCU: 0x11C4A, offset: 0x11C4A, size: 0x8, addend: 0x0, symName: __ZNSt3__116__non_trivial_ifILb1ENS_9allocatorINS_12basic_stringIcNS_11char_traitsIcEENS1_IcEEEEEEEC2B8ue170006Ev, symObjAddr: 0x1DD0, symBinAddr: 0x100003F3C, symSize: 0x14 }
  - { offsetInCU: 0x11C73, offset: 0x11C73, size: 0x8, addend: 0x0, symName: __ZNSt3__19basic_iosIcNS_11char_traitsIcEEEC2B8ue170006Ev, symObjAddr: 0x1DE4, symBinAddr: 0x100003F50, symSize: 0x44 }
  - { offsetInCU: 0x11C9C, offset: 0x11C9C, size: 0x8, addend: 0x0, symName: __ZNSt3__114basic_iostreamIcNS_11char_traitsIcEEEC2B8ue170006EPNS_15basic_streambufIcS2_EE, symObjAddr: 0x1E28, symBinAddr: 0x100003F94, symSize: 0xAC }
  - { offsetInCU: 0x11CE0, offset: 0x11CE0, size: 0x8, addend: 0x0, symName: __ZNSt3__115basic_stringbufIcNS_11char_traitsIcEENS_9allocatorIcEEEC1B8ue170006ERKNS_12basic_stringIcS2_S4_EEj, symObjAddr: 0x1ED4, symBinAddr: 0x100004040, symSize: 0x3C }
  - { offsetInCU: 0x11D27, offset: 0x11D27, size: 0x8, addend: 0x0, symName: __ZNSt3__18ios_baseC2B8ue170006Ev, symObjAddr: 0x1F10, symBinAddr: 0x10000407C, symSize: 0x24 }
  - { offsetInCU: 0x11D50, offset: 0x11D50, size: 0x8, addend: 0x0, symName: __ZNSt3__113basic_istreamIcNS_11char_traitsIcEEEC2B8ue170006EPNS_15basic_streambufIcS2_EE, symObjAddr: 0x1F34, symBinAddr: 0x1000040A0, symSize: 0x64 }
  - { offsetInCU: 0x11D93, offset: 0x11D93, size: 0x8, addend: 0x0, symName: __ZNSt3__113basic_ostreamIcNS_11char_traitsIcEEEC2B8ue170006Ev, symObjAddr: 0x1F98, symBinAddr: 0x100004104, symSize: 0x34 }
  - { offsetInCU: 0x11DC8, offset: 0x11DC8, size: 0x8, addend: 0x0, symName: __ZNSt3__19basic_iosIcNS_11char_traitsIcEEE4initB8ue170006EPNS_15basic_streambufIcS2_EE, symObjAddr: 0x1FCC, symBinAddr: 0x100004138, symSize: 0x44 }
  - { offsetInCU: 0x11DFD, offset: 0x11DFD, size: 0x8, addend: 0x0, symName: __ZNSt3__111char_traitsIcE3eofB8ue170006Ev, symObjAddr: 0x2010, symBinAddr: 0x10000417C, symSize: 0x8 }
  - { offsetInCU: 0x11E11, offset: 0x11E11, size: 0x8, addend: 0x0, symName: __ZNSt3__115basic_stringbufIcNS_11char_traitsIcEENS_9allocatorIcEEEC2B8ue170006ERKNS_12basic_stringIcS2_S4_EEj, symObjAddr: 0x2018, symBinAddr: 0x100004184, symSize: 0xB4 }
  - { offsetInCU: 0x11E58, offset: 0x11E58, size: 0x8, addend: 0x0, symName: __ZNKSt3__112basic_stringIcNS_11char_traitsIcEENS_9allocatorIcEEE13get_allocatorB8ue170006Ev, symObjAddr: 0x20CC, symBinAddr: 0x100004238, symSize: 0x24 }
  - { offsetInCU: 0x11E7D, offset: 0x11E7D, size: 0x8, addend: 0x0, symName: __ZNSt3__112basic_stringIcNS_11char_traitsIcEENS_9allocatorIcEEEC1B8ue170006ERKS4_, symObjAddr: 0x20F0, symBinAddr: 0x10000425C, symSize: 0x34 }
  - { offsetInCU: 0x11EB5, offset: 0x11EB5, size: 0x8, addend: 0x0, symName: __ZNKSt3__112basic_stringIcNS_11char_traitsIcEENS_9allocatorIcEEE7__allocB8ue170006Ev, symObjAddr: 0x2124, symBinAddr: 0x100004290, symSize: 0x24 }
  - { offsetInCU: 0x11EDA, offset: 0x11EDA, size: 0x8, addend: 0x0, symName: __ZNKSt3__117__compressed_pairINS_12basic_stringIcNS_11char_traitsIcEENS_9allocatorIcEEE5__repES5_E6secondB8ue170006Ev, symObjAddr: 0x2148, symBinAddr: 0x1000042B4, symSize: 0x24 }
  - { offsetInCU: 0x11EFF, offset: 0x11EFF, size: 0x8, addend: 0x0, symName: __ZNKSt3__122__compressed_pair_elemINS_9allocatorIcEELi1ELb1EE5__getB8ue170006Ev, symObjAddr: 0x216C, symBinAddr: 0x1000042D8, symSize: 0x14 }
  - { offsetInCU: 0x11F24, offset: 0x11F24, size: 0x8, addend: 0x0, symName: __ZNSt3__112basic_stringIcNS_11char_traitsIcEENS_9allocatorIcEEEC2B8ue170006ERKS4_, symObjAddr: 0x2180, symBinAddr: 0x1000042EC, symSize: 0x4C }
  - { offsetInCU: 0x11F5C, offset: 0x11F5C, size: 0x8, addend: 0x0, symName: __ZNSt3__117__compressed_pairINS_12basic_stringIcNS_11char_traitsIcEENS_9allocatorIcEEE5__repES5_EC1B8ue170006INS_18__default_init_tagERKS5_EEOT_OT0_, symObjAddr: 0x21CC, symBinAddr: 0x100004338, symSize: 0x3C }
  - { offsetInCU: 0x11FB3, offset: 0x11FB3, size: 0x8, addend: 0x0, symName: __ZNSt3__112basic_stringIcNS_11char_traitsIcEENS_9allocatorIcEEE14__default_initB8ue170006Ev, symObjAddr: 0x2208, symBinAddr: 0x100004374, symSize: 0x40 }
  - { offsetInCU: 0x11FD8, offset: 0x11FD8, size: 0x8, addend: 0x0, symName: __ZNSt3__117__compressed_pairINS_12basic_stringIcNS_11char_traitsIcEENS_9allocatorIcEEE5__repES5_EC2B8ue170006INS_18__default_init_tagERKS5_EEOT_OT0_, symObjAddr: 0x2248, symBinAddr: 0x1000043B4, symSize: 0x40 }
  - { offsetInCU: 0x1202F, offset: 0x1202F, size: 0x8, addend: 0x0, symName: __ZNSt3__122__compressed_pair_elemINS_12basic_stringIcNS_11char_traitsIcEENS_9allocatorIcEEE5__repELi0ELb0EEC2B8ue170006ENS_18__default_init_tagE, symObjAddr: 0x2288, symBinAddr: 0x1000043F4, symSize: 0x14 }
  - { offsetInCU: 0x12063, offset: 0x12063, size: 0x8, addend: 0x0, symName: __ZNSt3__122__compressed_pair_elemINS_9allocatorIcEELi1ELb1EEC2B8ue170006IRKS2_vEEOT_, symObjAddr: 0x229C, symBinAddr: 0x100004408, symSize: 0x18 }
  - { offsetInCU: 0x120A4, offset: 0x120A4, size: 0x8, addend: 0x0, symName: __ZNSt3__117__compressed_pairINS_12basic_stringIcNS_11char_traitsIcEENS_9allocatorIcEEE5__repES5_E5firstB8ue170006Ev, symObjAddr: 0x22B4, symBinAddr: 0x100004420, symSize: 0x24 }
  - { offsetInCU: 0x120C9, offset: 0x120C9, size: 0x8, addend: 0x0, symName: __ZNSt3__122__compressed_pair_elemINS_12basic_stringIcNS_11char_traitsIcEENS_9allocatorIcEEE5__repELi0ELb0EE5__getB8ue170006Ev, symObjAddr: 0x22D8, symBinAddr: 0x100004444, symSize: 0x14 }
  - { offsetInCU: 0x120EE, offset: 0x120EE, size: 0x8, addend: 0x0, symName: __ZNSt3__112basic_stringIcNS_11char_traitsIcEENS_9allocatorIcEEEC2B8ue170006Ev, symObjAddr: 0x22EC, symBinAddr: 0x100004458, symSize: 0x44 }
  - { offsetInCU: 0x12117, offset: 0x12117, size: 0x8, addend: 0x0, symName: __ZNSt3__117__compressed_pairINS_12basic_stringIcNS_11char_traitsIcEENS_9allocatorIcEEE5__repES5_EC1B8ue170006INS_18__default_init_tagESA_EEOT_OT0_, symObjAddr: 0x2330, symBinAddr: 0x10000449C, symSize: 0x3C }
  - { offsetInCU: 0x1216E, offset: 0x1216E, size: 0x8, addend: 0x0, symName: __ZNSt3__117__compressed_pairINS_12basic_stringIcNS_11char_traitsIcEENS_9allocatorIcEEE5__repES5_EC2B8ue170006INS_18__default_init_tagESA_EEOT_OT0_, symObjAddr: 0x236C, symBinAddr: 0x1000044D8, symSize: 0x3C }
  - { offsetInCU: 0x121C5, offset: 0x121C5, size: 0x8, addend: 0x0, symName: __ZNSt3__122__compressed_pair_elemINS_9allocatorIcEELi1ELb1EEC2B8ue170006ENS_18__default_init_tagE, symObjAddr: 0x23A8, symBinAddr: 0x100004514, symSize: 0x2C }
  - { offsetInCU: 0x121F9, offset: 0x121F9, size: 0x8, addend: 0x0, symName: __ZNSt3__19allocatorIcEC2B8ue170006Ev, symObjAddr: 0x23D4, symBinAddr: 0x100004540, symSize: 0x2C }
  - { offsetInCU: 0x12222, offset: 0x12222, size: 0x8, addend: 0x0, symName: __ZNSt3__116__non_trivial_ifILb1ENS_9allocatorIcEEEC2B8ue170006Ev, symObjAddr: 0x2400, symBinAddr: 0x10000456C, symSize: 0x14 }
  - { offsetInCU: 0x12269, offset: 0x12269, size: 0x8, addend: 0x0, symName: __ZNKSt3__113basic_istreamIcNS_11char_traitsIcEEE6sentrycvbB8ue170006Ev, symObjAddr: 0x2414, symBinAddr: 0x100004580, symSize: 0x1C }
  - { offsetInCU: 0x1228E, offset: 0x1228E, size: 0x8, addend: 0x0, symName: __ZNSt3__112basic_stringIcNS_11char_traitsIcEENS_9allocatorIcEEE5clearB8ue170006Ev, symObjAddr: 0x2430, symBinAddr: 0x10000459C, symSize: 0x78 }
  - { offsetInCU: 0x122B4, offset: 0x122B4, size: 0x8, addend: 0x0, symName: __ZNKSt3__18ios_base5widthB8ue170006Ev, symObjAddr: 0x24A8, symBinAddr: 0x100004614, symSize: 0x18 }
  - { offsetInCU: 0x122DB, offset: 0x122DB, size: 0x8, addend: 0x0, symName: __ZNKSt3__112basic_stringIcNS_11char_traitsIcEENS_9allocatorIcEEE8max_sizeB8ue170006Ev, symObjAddr: 0x24C0, symBinAddr: 0x10000462C, symSize: 0xAC }
  - { offsetInCU: 0x1232C, offset: 0x1232C, size: 0x8, addend: 0x0, symName: __ZNSt3__114numeric_limitsIlE3maxB8ue170006Ev, symObjAddr: 0x256C, symBinAddr: 0x1000046D8, symSize: 0x14 }
  - { offsetInCU: 0x12340, offset: 0x12340, size: 0x8, addend: 0x0, symName: __ZNKSt3__19basic_iosIcNS_11char_traitsIcEEE5rdbufB8ue170006Ev, symObjAddr: 0x25AC, symBinAddr: 0x100004718, symSize: 0x24 }
  - { offsetInCU: 0x12366, offset: 0x12366, size: 0x8, addend: 0x0, symName: __ZNSt3__115basic_streambufIcNS_11char_traitsIcEEE5sgetcB8ue170006Ev, symObjAddr: 0x25D0, symBinAddr: 0x10000473C, symSize: 0x70 }
  - { offsetInCU: 0x1238B, offset: 0x1238B, size: 0x8, addend: 0x0, symName: __ZNSt3__111char_traitsIcE11eq_int_typeB8ue170006Eii, symObjAddr: 0x2640, symBinAddr: 0x1000047AC, symSize: 0x28 }
  - { offsetInCU: 0x123BE, offset: 0x123BE, size: 0x8, addend: 0x0, symName: __ZNSt3__111char_traitsIcE12to_char_typeB8ue170006Ei, symObjAddr: 0x2668, symBinAddr: 0x1000047D4, symSize: 0x18 }
  - { offsetInCU: 0x12409, offset: 0x12409, size: 0x8, addend: 0x0, symName: __ZNKSt3__15ctypeIcE2isB8ue170006Ejc, symObjAddr: 0x2680, symBinAddr: 0x1000047EC, symSize: 0x7C }
  - { offsetInCU: 0x1244C, offset: 0x1244C, size: 0x8, addend: 0x0, symName: __ZNSt3__115basic_streambufIcNS_11char_traitsIcEEE6sbumpcB8ue170006Ev, symObjAddr: 0x26FC, symBinAddr: 0x100004868, symSize: 0x78 }
  - { offsetInCU: 0x12471, offset: 0x12471, size: 0x8, addend: 0x0, symName: __ZNSt3__18ios_base5widthB8ue170006El, symObjAddr: 0x2774, symBinAddr: 0x1000048E0, symSize: 0x2C }
  - { offsetInCU: 0x124B6, offset: 0x124B6, size: 0x8, addend: 0x0, symName: __ZNSt3__18ios_base18__setstate_nothrowB8ue170006Ej, symObjAddr: 0x27A0, symBinAddr: 0x10000490C, symSize: 0x64 }
  - { offsetInCU: 0x124EA, offset: 0x124EA, size: 0x8, addend: 0x0, symName: __ZNKSt3__19basic_iosIcNS_11char_traitsIcEEE10exceptionsB8ue170006Ev, symObjAddr: 0x2804, symBinAddr: 0x100004970, symSize: 0x24 }
  - { offsetInCU: 0x1250F, offset: 0x1250F, size: 0x8, addend: 0x0, symName: __ZNSt3__19basic_iosIcNS_11char_traitsIcEEE8setstateB8ue170006Ej, symObjAddr: 0x2828, symBinAddr: 0x100004994, symSize: 0x2C }
  - { offsetInCU: 0x12543, offset: 0x12543, size: 0x8, addend: 0x0, symName: __ZNKSt3__112basic_stringIcNS_11char_traitsIcEENS_9allocatorIcEEE9__is_longB8ue170006Ev, symObjAddr: 0x2854, symBinAddr: 0x1000049C0, symSize: 0x38 }
  - { offsetInCU: 0x12568, offset: 0x12568, size: 0x8, addend: 0x0, symName: __ZNSt3__111char_traitsIcE6assignB8ue170006ERcRKc, symObjAddr: 0x288C, symBinAddr: 0x1000049F8, symSize: 0x24 }
  - { offsetInCU: 0x12599, offset: 0x12599, size: 0x8, addend: 0x0, symName: __ZNSt3__112basic_stringIcNS_11char_traitsIcEENS_9allocatorIcEEE18__get_long_pointerB8ue170006Ev, symObjAddr: 0x28B0, symBinAddr: 0x100004A1C, symSize: 0x28 }
  - { offsetInCU: 0x125BE, offset: 0x125BE, size: 0x8, addend: 0x0, symName: __ZNSt3__112basic_stringIcNS_11char_traitsIcEENS_9allocatorIcEEE15__set_long_sizeB8ue170006Em, symObjAddr: 0x28D8, symBinAddr: 0x100004A44, symSize: 0x38 }
  - { offsetInCU: 0x125F2, offset: 0x125F2, size: 0x8, addend: 0x0, symName: __ZNSt3__112basic_stringIcNS_11char_traitsIcEENS_9allocatorIcEEE19__get_short_pointerB8ue170006Ev, symObjAddr: 0x2910, symBinAddr: 0x100004A7C, symSize: 0x28 }
  - { offsetInCU: 0x12617, offset: 0x12617, size: 0x8, addend: 0x0, symName: __ZNSt3__112basic_stringIcNS_11char_traitsIcEENS_9allocatorIcEEE16__set_short_sizeB8ue170006Em, symObjAddr: 0x2938, symBinAddr: 0x100004AA4, symSize: 0x78 }
  - { offsetInCU: 0x1264B, offset: 0x1264B, size: 0x8, addend: 0x0, symName: __ZNKSt3__117__compressed_pairINS_12basic_stringIcNS_11char_traitsIcEENS_9allocatorIcEEE5__repES5_E5firstB8ue170006Ev, symObjAddr: 0x29B0, symBinAddr: 0x100004B1C, symSize: 0x24 }
  - { offsetInCU: 0x12670, offset: 0x12670, size: 0x8, addend: 0x0, symName: __ZNKSt3__122__compressed_pair_elemINS_12basic_stringIcNS_11char_traitsIcEENS_9allocatorIcEEE5__repELi0ELb0EE5__getB8ue170006Ev, symObjAddr: 0x29D4, symBinAddr: 0x100004B40, symSize: 0x14 }
  - { offsetInCU: 0x12695, offset: 0x12695, size: 0x8, addend: 0x0, symName: __ZNSt3__114pointer_traitsIPcE10pointer_toB8ue170006ERc, symObjAddr: 0x29E8, symBinAddr: 0x100004B54, symSize: 0x14 }
  - { offsetInCU: 0x126C2, offset: 0x126C2, size: 0x8, addend: 0x0, symName: __ZNSt3__116allocator_traitsINS_9allocatorIcEEE8max_sizeB8ue170006IS2_vEEmRKS2_, symObjAddr: 0x29FC, symBinAddr: 0x100004B68, symSize: 0x24 }
  - { offsetInCU: 0x126F0, offset: 0x126F0, size: 0x8, addend: 0x0, symName: __ZNSt3__114numeric_limitsImE3maxB8ue170006Ev, symObjAddr: 0x2A20, symBinAddr: 0x100004B8C, symSize: 0x14 }
  - { offsetInCU: 0x12704, offset: 0x12704, size: 0x8, addend: 0x0, symName: __ZNKSt3__19allocatorIcE8max_sizeB8ue170006Ev, symObjAddr: 0x2A34, symBinAddr: 0x100004BA0, symSize: 0x14 }
  - { offsetInCU: 0x12729, offset: 0x12729, size: 0x8, addend: 0x0, symName: __ZNSt3__123__libcpp_numeric_limitsImLb1EE3maxB8ue170006Ev, symObjAddr: 0x2A48, symBinAddr: 0x100004BB4, symSize: 0x8 }
  - { offsetInCU: 0x1273D, offset: 0x1273D, size: 0x8, addend: 0x0, symName: __ZNSt3__123__libcpp_numeric_limitsIlLb1EE3maxB8ue170006Ev, symObjAddr: 0x2A50, symBinAddr: 0x100004BBC, symSize: 0x8 }
  - { offsetInCU: 0x12751, offset: 0x12751, size: 0x8, addend: 0x0, symName: __ZNKSt3__18ios_base5rdbufB8ue170006Ev, symObjAddr: 0x2A58, symBinAddr: 0x100004BC4, symSize: 0x18 }
  - { offsetInCU: 0x12776, offset: 0x12776, size: 0x8, addend: 0x0, symName: __ZNSt3__111char_traitsIcE11to_int_typeB8ue170006Ec, symObjAddr: 0x2A70, symBinAddr: 0x100004BDC, symSize: 0x14 }
  - { offsetInCU: 0x12799, offset: 0x12799, size: 0x8, addend: 0x0, symName: __Z7isasciii, symObjAddr: 0x2A84, symBinAddr: 0x100004BF0, symSize: 0x24 }
  - { offsetInCU: 0x127C6, offset: 0x127C6, size: 0x8, addend: 0x0, symName: __ZNKSt3__18ios_base10exceptionsB8ue170006Ev, symObjAddr: 0x2AA8, symBinAddr: 0x100004C14, symSize: 0x18 }
  - { offsetInCU: 0x127ED, offset: 0x127ED, size: 0x8, addend: 0x0, symName: __ZNSt3__18ios_base8setstateB8ue170006Ej, symObjAddr: 0x2AC0, symBinAddr: 0x100004C2C, symSize: 0x34 }
  - { offsetInCU: 0x12822, offset: 0x12822, size: 0x8, addend: 0x0, symName: __ZNKSt3__111__wrap_iterIPcEplB8ue170006El, symObjAddr: 0x2B74, symBinAddr: 0x100004CE0, symSize: 0x3C }
  - { offsetInCU: 0x12863, offset: 0x12863, size: 0x8, addend: 0x0, symName: __ZNKSt3__111__wrap_iterIPKcE4baseB8ue170006Ev, symObjAddr: 0x2BB0, symBinAddr: 0x100004D1C, symSize: 0x18 }
  - { offsetInCU: 0x12888, offset: 0x12888, size: 0x8, addend: 0x0, symName: __ZNKSt3__111__wrap_iterIPcE4baseB8ue170006Ev, symObjAddr: 0x2BC8, symBinAddr: 0x100004D34, symSize: 0x18 }
  - { offsetInCU: 0x128AD, offset: 0x128AD, size: 0x8, addend: 0x0, symName: __ZNSt3__111__wrap_iterIPcEpLB8ue170006El, symObjAddr: 0x2BE0, symBinAddr: 0x100004D4C, symSize: 0x28 }
  - { offsetInCU: 0x128E0, offset: 0x128E0, size: 0x8, addend: 0x0, symName: __ZNSt3__111__wrap_iterIPcEppB8ue170006Ev, symObjAddr: 0x2CC0, symBinAddr: 0x100004E2C, symSize: 0x20 }
  - { offsetInCU: 0x1290F, offset: 0x1290F, size: 0x8, addend: 0x0, symName: __ZZN20WordFrequencyCounter18CountWordFrequencyENSt3__112basic_stringIcNS0_11char_traitsIcEENS0_9allocatorIcEEEEENKUlcE_clEc, symObjAddr: 0x2CE0, symBinAddr: 0x100004E4C, symSize: 0x34 }
  - { offsetInCU: 0x12946, offset: 0x12946, size: 0x8, addend: 0x0, symName: __ZNKSt3__111__wrap_iterIPcEdeB8ue170006Ev, symObjAddr: 0x2D14, symBinAddr: 0x100004E80, symSize: 0x18 }
  - { offsetInCU: 0x1296A, offset: 0x1296A, size: 0x8, addend: 0x0, symName: __Z8__istypeim, symObjAddr: 0x2D9C, symBinAddr: 0x100004F08, symSize: 0x8C }
  - { offsetInCU: 0x129A5, offset: 0x129A5, size: 0x8, addend: 0x0, symName: __ZNSt3__112basic_stringIcNS_11char_traitsIcEENS_9allocatorIcEEE15__make_iteratorB8ue170006EPc, symObjAddr: 0x2E28, symBinAddr: 0x100004F94, symSize: 0x30 }
  - { offsetInCU: 0x129D9, offset: 0x129D9, size: 0x8, addend: 0x0, symName: __ZNSt3__112basic_stringIcNS_11char_traitsIcEENS_9allocatorIcEEE13__get_pointerB8ue170006Ev, symObjAddr: 0x2E58, symBinAddr: 0x100004FC4, symSize: 0x54 }
  - { offsetInCU: 0x129FE, offset: 0x129FE, size: 0x8, addend: 0x0, symName: __ZNSt3__111__wrap_iterIPcEC1B8ue170006ES1_, symObjAddr: 0x2EAC, symBinAddr: 0x100005018, symSize: 0x34 }
  - { offsetInCU: 0x12A35, offset: 0x12A35, size: 0x8, addend: 0x0, symName: __ZNSt3__111__wrap_iterIPcEC2B8ue170006ES1_, symObjAddr: 0x2EE0, symBinAddr: 0x10000504C, symSize: 0x20 }
  - { offsetInCU: 0x12A6C, offset: 0x12A6C, size: 0x8, addend: 0x0, symName: __ZNKSt3__112basic_stringIcNS_11char_traitsIcEENS_9allocatorIcEEE4sizeB8ue170006Ev, symObjAddr: 0x2F00, symBinAddr: 0x10000506C, symSize: 0x54 }
  - { offsetInCU: 0x12A91, offset: 0x12A91, size: 0x8, addend: 0x0, symName: __ZNKSt3__112basic_stringIcNS_11char_traitsIcEENS_9allocatorIcEEE15__get_long_sizeB8ue170006Ev, symObjAddr: 0x2F54, symBinAddr: 0x1000050C0, symSize: 0x28 }
  - { offsetInCU: 0x12AB6, offset: 0x12AB6, size: 0x8, addend: 0x0, symName: __ZNKSt3__112basic_stringIcNS_11char_traitsIcEENS_9allocatorIcEEE16__get_short_sizeB8ue170006Ev, symObjAddr: 0x2F7C, symBinAddr: 0x1000050E8, symSize: 0x34 }
  - { offsetInCU: 0x12ADB, offset: 0x12ADB, size: 0x8, addend: 0x0, symName: __ZNSt3__111__wrap_iterIPKcEC2B8ue170006IPcEERKNS0_IT_EEPNS_9enable_ifIXsr14is_convertibleIS6_S2_EE5valueEvE4typeE, symObjAddr: 0x2FB0, symBinAddr: 0x10000511C, symSize: 0x40 }
  - { offsetInCU: 0x12B26, offset: 0x12B26, size: 0x8, addend: 0x0, symName: __ZNSt3__16vectorINS_12basic_stringIcNS_11char_traitsIcEENS_9allocatorIcEEEENS4_IS6_EEE9__end_capB8ue170006Ev, symObjAddr: 0x2FF0, symBinAddr: 0x10000515C, symSize: 0x28 }
  - { offsetInCU: 0x12B4B, offset: 0x12B4B, size: 0x8, addend: 0x0, symName: __ZNSt3__16vectorINS_12basic_stringIcNS_11char_traitsIcEENS_9allocatorIcEEEENS4_IS6_EEE22__construct_one_at_endB8ue170006IJRKS6_EEEvDpOT_, symObjAddr: 0x3018, symBinAddr: 0x100005184, symSize: 0x90 }
  - { offsetInCU: 0x12B99, offset: 0x12B99, size: 0x8, addend: 0x0, symName: __ZNSt3__16vectorINS_12basic_stringIcNS_11char_traitsIcEENS_9allocatorIcEEEENS4_IS6_EEE21__push_back_slow_pathIRKS6_EEvOT_, symObjAddr: 0x30A8, symBinAddr: 0x100005214, symSize: 0xD8 }
  - { offsetInCU: 0x12BF5, offset: 0x12BF5, size: 0x8, addend: 0x0, symName: __ZNSt3__117__compressed_pairIPNS_12basic_stringIcNS_11char_traitsIcEENS_9allocatorIcEEEENS4_IS6_EEE5firstB8ue170006Ev, symObjAddr: 0x3180, symBinAddr: 0x1000052EC, symSize: 0x24 }
  - { offsetInCU: 0x12C1A, offset: 0x12C1A, size: 0x8, addend: 0x0, symName: __ZNSt3__122__compressed_pair_elemIPNS_12basic_stringIcNS_11char_traitsIcEENS_9allocatorIcEEEELi0ELb0EE5__getB8ue170006Ev, symObjAddr: 0x31A4, symBinAddr: 0x100005310, symSize: 0x14 }
  - { offsetInCU: 0x12C58, offset: 0x12C58, size: 0x8, addend: 0x0, symName: __ZNSt3__16vectorINS_12basic_stringIcNS_11char_traitsIcEENS_9allocatorIcEEEENS4_IS6_EEE21_ConstructTransactionC1B8ue170006ERS8_m, symObjAddr: 0x31B8, symBinAddr: 0x100005324, symSize: 0x3C }
  - { offsetInCU: 0x12C9F, offset: 0x12C9F, size: 0x8, addend: 0x0, symName: __ZNSt3__116allocator_traitsINS_9allocatorINS_12basic_stringIcNS_11char_traitsIcEENS1_IcEEEEEEE9constructB8ue170006IS6_JRKS6_EvEEvRS7_PT_DpOT0_, symObjAddr: 0x31F4, symBinAddr: 0x100005360, symSize: 0x34 }
  - { offsetInCU: 0x12CF6, offset: 0x12CF6, size: 0x8, addend: 0x0, symName: __ZNSt3__16vectorINS_12basic_stringIcNS_11char_traitsIcEENS_9allocatorIcEEEENS4_IS6_EEE7__allocB8ue170006Ev, symObjAddr: 0x3228, symBinAddr: 0x100005394, symSize: 0x28 }
  - { offsetInCU: 0x12D1B, offset: 0x12D1B, size: 0x8, addend: 0x0, symName: __ZNSt3__16vectorINS_12basic_stringIcNS_11char_traitsIcEENS_9allocatorIcEEEENS4_IS6_EEE21_ConstructTransactionD1B8ue170006Ev, symObjAddr: 0x3264, symBinAddr: 0x1000053D0, symSize: 0x2C }
  - { offsetInCU: 0x12D44, offset: 0x12D44, size: 0x8, addend: 0x0, symName: __ZNSt3__16vectorINS_12basic_stringIcNS_11char_traitsIcEENS_9allocatorIcEEEENS4_IS6_EEE21_ConstructTransactionC2B8ue170006ERS8_m, symObjAddr: 0x3290, symBinAddr: 0x1000053FC, symSize: 0x4C }
  - { offsetInCU: 0x12D8B, offset: 0x12D8B, size: 0x8, addend: 0x0, symName: __ZNSt3__19allocatorINS_12basic_stringIcNS_11char_traitsIcEENS0_IcEEEEE9constructB8ue170006IS5_JRKS5_EEEvPT_DpOT0_, symObjAddr: 0x32DC, symBinAddr: 0x100005448, symSize: 0x30 }
  - { offsetInCU: 0x12DE0, offset: 0x12DE0, size: 0x8, addend: 0x0, symName: __ZNSt3__117__compressed_pairIPNS_12basic_stringIcNS_11char_traitsIcEENS_9allocatorIcEEEENS4_IS6_EEE6secondB8ue170006Ev, symObjAddr: 0x330C, symBinAddr: 0x100005478, symSize: 0x24 }
  - { offsetInCU: 0x12E05, offset: 0x12E05, size: 0x8, addend: 0x0, symName: __ZNSt3__122__compressed_pair_elemINS_9allocatorINS_12basic_stringIcNS_11char_traitsIcEENS1_IcEEEEEELi1ELb1EE5__getB8ue170006Ev, symObjAddr: 0x3330, symBinAddr: 0x10000549C, symSize: 0x14 }
  - { offsetInCU: 0x12E2A, offset: 0x12E2A, size: 0x8, addend: 0x0, symName: __ZNSt3__16vectorINS_12basic_stringIcNS_11char_traitsIcEENS_9allocatorIcEEEENS4_IS6_EEE21_ConstructTransactionD2B8ue170006Ev, symObjAddr: 0x3344, symBinAddr: 0x1000054B0, symSize: 0x20 }
  - { offsetInCU: 0x12E53, offset: 0x12E53, size: 0x8, addend: 0x0, symName: __ZNKSt3__16vectorINS_12basic_stringIcNS_11char_traitsIcEENS_9allocatorIcEEEENS4_IS6_EEE11__recommendB8ue170006Em, symObjAddr: 0x3364, symBinAddr: 0x1000054D0, symSize: 0xB4 }
  - { offsetInCU: 0x12EA6, offset: 0x12EA6, size: 0x8, addend: 0x0, symName: __ZNSt3__114__split_bufferINS_12basic_stringIcNS_11char_traitsIcEENS_9allocatorIcEEEERNS4_IS6_EEEC1EmmS8_, symObjAddr: 0x3418, symBinAddr: 0x100005584, symSize: 0x44 }
  - { offsetInCU: 0x12EFB, offset: 0x12EFB, size: 0x8, addend: 0x0, symName: __ZNSt3__114__split_bufferINS_12basic_stringIcNS_11char_traitsIcEENS_9allocatorIcEEEERNS4_IS6_EEED1Ev, symObjAddr: 0x356C, symBinAddr: 0x1000056D8, symSize: 0x2C }
  - { offsetInCU: 0x12F26, offset: 0x12F26, size: 0x8, addend: 0x0, symName: __ZNKSt3__16vectorINS_12basic_stringIcNS_11char_traitsIcEENS_9allocatorIcEEEENS4_IS6_EEE8max_sizeEv, symObjAddr: 0x3598, symBinAddr: 0x100005704, symSize: 0x60 }
  - { offsetInCU: 0x12F4C, offset: 0x12F4C, size: 0x8, addend: 0x0, symName: __ZNKSt3__16vectorINS_12basic_stringIcNS_11char_traitsIcEENS_9allocatorIcEEEENS4_IS6_EEE20__throw_length_errorB8ue170006Ev, symObjAddr: 0x35F8, symBinAddr: 0x100005764, symSize: 0x1C }
  - { offsetInCU: 0x12F71, offset: 0x12F71, size: 0x8, addend: 0x0, symName: __ZNKSt3__16vectorINS_12basic_stringIcNS_11char_traitsIcEENS_9allocatorIcEEEENS4_IS6_EEE8capacityB8ue170006Ev, symObjAddr: 0x3614, symBinAddr: 0x100005780, symSize: 0x40 }
  - { offsetInCU: 0x12FA0, offset: 0x12FA0, size: 0x8, addend: 0x0, symName: __ZNSt3__116allocator_traitsINS_9allocatorINS_12basic_stringIcNS_11char_traitsIcEENS1_IcEEEEEEE8max_sizeB8ue170006IS7_vEEmRKS7_, symObjAddr: 0x36AC, symBinAddr: 0x100005818, symSize: 0x24 }
  - { offsetInCU: 0x12FCE, offset: 0x12FCE, size: 0x8, addend: 0x0, symName: __ZNKSt3__16vectorINS_12basic_stringIcNS_11char_traitsIcEENS_9allocatorIcEEEENS4_IS6_EEE7__allocB8ue170006Ev, symObjAddr: 0x36D0, symBinAddr: 0x10000583C, symSize: 0x28 }
  - { offsetInCU: 0x13007, offset: 0x13007, size: 0x8, addend: 0x0, symName: __ZNKSt3__16__lessIvvEclB8ue170006ImmEEbRKT_RKT0_, symObjAddr: 0x374C, symBinAddr: 0x1000058B8, symSize: 0x34 }
  - { offsetInCU: 0x1305A, offset: 0x1305A, size: 0x8, addend: 0x0, symName: __ZNKSt3__19allocatorINS_12basic_stringIcNS_11char_traitsIcEENS0_IcEEEEE8max_sizeB8ue170006Ev, symObjAddr: 0x3780, symBinAddr: 0x1000058EC, symSize: 0x18 }
  - { offsetInCU: 0x1307F, offset: 0x1307F, size: 0x8, addend: 0x0, symName: __ZNKSt3__117__compressed_pairIPNS_12basic_stringIcNS_11char_traitsIcEENS_9allocatorIcEEEENS4_IS6_EEE6secondB8ue170006Ev, symObjAddr: 0x3798, symBinAddr: 0x100005904, symSize: 0x24 }
  - { offsetInCU: 0x130A4, offset: 0x130A4, size: 0x8, addend: 0x0, symName: __ZNKSt3__122__compressed_pair_elemINS_9allocatorINS_12basic_stringIcNS_11char_traitsIcEENS1_IcEEEEEELi1ELb1EE5__getB8ue170006Ev, symObjAddr: 0x37BC, symBinAddr: 0x100005928, symSize: 0x14 }
  - { offsetInCU: 0x130C9, offset: 0x130C9, size: 0x8, addend: 0x0, symName: __ZNSt12length_errorC1B8ue170006EPKc, symObjAddr: 0x3834, symBinAddr: 0x1000059A0, symSize: 0x34 }
  - { offsetInCU: 0x13100, offset: 0x13100, size: 0x8, addend: 0x0, symName: __ZNSt12length_errorC2B8ue170006EPKc, symObjAddr: 0x3868, symBinAddr: 0x1000059D4, symSize: 0x4C }
  - { offsetInCU: 0x13137, offset: 0x13137, size: 0x8, addend: 0x0, symName: __ZNKSt3__16vectorINS_12basic_stringIcNS_11char_traitsIcEENS_9allocatorIcEEEENS4_IS6_EEE9__end_capB8ue170006Ev, symObjAddr: 0x38B4, symBinAddr: 0x100005A20, symSize: 0x28 }
  - { offsetInCU: 0x1315C, offset: 0x1315C, size: 0x8, addend: 0x0, symName: __ZNKSt3__117__compressed_pairIPNS_12basic_stringIcNS_11char_traitsIcEENS_9allocatorIcEEEENS4_IS6_EEE5firstB8ue170006Ev, symObjAddr: 0x38DC, symBinAddr: 0x100005A48, symSize: 0x24 }
  - { offsetInCU: 0x13181, offset: 0x13181, size: 0x8, addend: 0x0, symName: __ZNKSt3__122__compressed_pair_elemIPNS_12basic_stringIcNS_11char_traitsIcEENS_9allocatorIcEEEELi0ELb0EE5__getB8ue170006Ev, symObjAddr: 0x3900, symBinAddr: 0x100005A6C, symSize: 0x14 }
  - { offsetInCU: 0x131A6, offset: 0x131A6, size: 0x8, addend: 0x0, symName: __ZNSt3__114__split_bufferINS_12basic_stringIcNS_11char_traitsIcEENS_9allocatorIcEEEERNS4_IS6_EEEC2EmmS8_, symObjAddr: 0x3968, symBinAddr: 0x100005AD4, symSize: 0xE0 }
  - { offsetInCU: 0x13218, offset: 0x13218, size: 0x8, addend: 0x0, symName: __ZNSt3__117__compressed_pairIPNS_12basic_stringIcNS_11char_traitsIcEENS_9allocatorIcEEEERNS4_IS6_EEEC1B8ue170006IDnS9_EEOT_OT0_, symObjAddr: 0x3A48, symBinAddr: 0x100005BB4, symSize: 0x3C }
  - { offsetInCU: 0x1326F, offset: 0x1326F, size: 0x8, addend: 0x0, symName: __ZNSt3__114__split_bufferINS_12basic_stringIcNS_11char_traitsIcEENS_9allocatorIcEEEERNS4_IS6_EEE7__allocB8ue170006Ev, symObjAddr: 0x3AC4, symBinAddr: 0x100005C30, symSize: 0x28 }
  - { offsetInCU: 0x13294, offset: 0x13294, size: 0x8, addend: 0x0, symName: __ZNSt3__114__split_bufferINS_12basic_stringIcNS_11char_traitsIcEENS_9allocatorIcEEEERNS4_IS6_EEE9__end_capB8ue170006Ev, symObjAddr: 0x3AEC, symBinAddr: 0x100005C58, symSize: 0x28 }
  - { offsetInCU: 0x132B9, offset: 0x132B9, size: 0x8, addend: 0x0, symName: __ZNSt3__117__compressed_pairIPNS_12basic_stringIcNS_11char_traitsIcEENS_9allocatorIcEEEERNS4_IS6_EEEC2B8ue170006IDnS9_EEOT_OT0_, symObjAddr: 0x3B14, symBinAddr: 0x100005C80, symSize: 0x48 }
  - { offsetInCU: 0x13310, offset: 0x13310, size: 0x8, addend: 0x0, symName: __ZNSt3__122__compressed_pair_elemIRNS_9allocatorINS_12basic_stringIcNS_11char_traitsIcEENS1_IcEEEEEELi1ELb0EEC2B8ue170006IS8_vEEOT_, symObjAddr: 0x3B5C, symBinAddr: 0x100005CC8, symSize: 0x20 }
  - { offsetInCU: 0x13351, offset: 0x13351, size: 0x8, addend: 0x0, symName: __ZNSt3__19allocatorINS_12basic_stringIcNS_11char_traitsIcEENS0_IcEEEEE8allocateB8ue170006Em, symObjAddr: 0x3B7C, symBinAddr: 0x100005CE8, symSize: 0x5C }
  - { offsetInCU: 0x13384, offset: 0x13384, size: 0x8, addend: 0x0, symName: __ZNSt3__117__compressed_pairIPNS_12basic_stringIcNS_11char_traitsIcEENS_9allocatorIcEEEERNS4_IS6_EEE6secondB8ue170006Ev, symObjAddr: 0x3C58, symBinAddr: 0x100005DC4, symSize: 0x28 }
  - { offsetInCU: 0x133A9, offset: 0x133A9, size: 0x8, addend: 0x0, symName: __ZNSt3__122__compressed_pair_elemIRNS_9allocatorINS_12basic_stringIcNS_11char_traitsIcEENS1_IcEEEEEELi1ELb0EE5__getB8ue170006Ev, symObjAddr: 0x3C80, symBinAddr: 0x100005DEC, symSize: 0x18 }
  - { offsetInCU: 0x133CE, offset: 0x133CE, size: 0x8, addend: 0x0, symName: __ZNSt3__117__compressed_pairIPNS_12basic_stringIcNS_11char_traitsIcEENS_9allocatorIcEEEERNS4_IS6_EEE5firstB8ue170006Ev, symObjAddr: 0x3C98, symBinAddr: 0x100005E04, symSize: 0x24 }
  - { offsetInCU: 0x133F3, offset: 0x133F3, size: 0x8, addend: 0x0, symName: __ZNKSt3__16vectorINS_12basic_stringIcNS_11char_traitsIcEENS_9allocatorIcEEEENS4_IS6_EEE17__annotate_deleteB8ue170006Ev, symObjAddr: 0x3CBC, symBinAddr: 0x100005E28, symSize: 0xD4 }
  - { offsetInCU: 0x13418, offset: 0x13418, size: 0x8, addend: 0x0, symName: __ZNSt3__116reverse_iteratorIPNS_12basic_stringIcNS_11char_traitsIcEENS_9allocatorIcEEEEEC1B8ue170006ES7_, symObjAddr: 0x3EBC, symBinAddr: 0x100006028, symSize: 0x34 }
  - { offsetInCU: 0x1344F, offset: 0x1344F, size: 0x8, addend: 0x0, symName: __ZNKSt3__116reverse_iteratorIPNS_12basic_stringIcNS_11char_traitsIcEENS_9allocatorIcEEEEE4baseB8ue170006Ev, symObjAddr: 0x3EF0, symBinAddr: 0x10000605C, symSize: 0x18 }
  - { offsetInCU: 0x13474, offset: 0x13474, size: 0x8, addend: 0x0, symName: __ZNKSt3__16vectorINS_12basic_stringIcNS_11char_traitsIcEENS_9allocatorIcEEEENS4_IS6_EEE14__annotate_newB8ue170006Em, symObjAddr: 0x3F44, symBinAddr: 0x1000060B0, symSize: 0xC8 }
  - { offsetInCU: 0x134A8, offset: 0x134A8, size: 0x8, addend: 0x0, symName: __ZNKSt3__16vectorINS_12basic_stringIcNS_11char_traitsIcEENS_9allocatorIcEEEENS4_IS6_EEE31__annotate_contiguous_containerB8ue170006EPKvSA_SA_SA_, symObjAddr: 0x400C, symBinAddr: 0x100006178, symSize: 0x20 }
  - { offsetInCU: 0x134FD, offset: 0x134FD, size: 0x8, addend: 0x0, symName: __ZNKSt3__16vectorINS_12basic_stringIcNS_11char_traitsIcEENS_9allocatorIcEEEENS4_IS6_EEE4dataB8ue170006Ev, symObjAddr: 0x402C, symBinAddr: 0x100006198, symSize: 0x28 }
  - { offsetInCU: 0x13522, offset: 0x13522, size: 0x8, addend: 0x0, symName: __ZNSt3__129_AllocatorDestroyRangeReverseINS_9allocatorINS_12basic_stringIcNS_11char_traitsIcEENS1_IcEEEEEENS_16reverse_iteratorIPS6_EEEC1B8ue170006ERS7_RSA_SD_, symObjAddr: 0x40A0, symBinAddr: 0x10000620C, symSize: 0x44 }
  - { offsetInCU: 0x1357D, offset: 0x1357D, size: 0x8, addend: 0x0, symName: __ZNSt3__116allocator_traitsINS_9allocatorINS_12basic_stringIcNS_11char_traitsIcEENS1_IcEEEEEEE9constructB8ue170006IS6_JS6_EvEEvRS7_PT_DpOT0_, symObjAddr: 0x412C, symBinAddr: 0x100006298, symSize: 0x34 }
  - { offsetInCU: 0x135D4, offset: 0x135D4, size: 0x8, addend: 0x0, symName: __ZNKSt3__116reverse_iteratorIPNS_12basic_stringIcNS_11char_traitsIcEENS_9allocatorIcEEEEEdeB8ue170006Ev, symObjAddr: 0x4184, symBinAddr: 0x1000062F0, symSize: 0x28 }
  - { offsetInCU: 0x13607, offset: 0x13607, size: 0x8, addend: 0x0, symName: __ZNSt3__116reverse_iteratorIPNS_12basic_stringIcNS_11char_traitsIcEENS_9allocatorIcEEEEEppB8ue170006Ev, symObjAddr: 0x41AC, symBinAddr: 0x100006318, symSize: 0x20 }
  - { offsetInCU: 0x1362C, offset: 0x1362C, size: 0x8, addend: 0x0, symName: __ZNSt3__128__exception_guard_exceptionsINS_29_AllocatorDestroyRangeReverseINS_9allocatorINS_12basic_stringIcNS_11char_traitsIcEENS2_IcEEEEEENS_16reverse_iteratorIPS7_EEEEE10__completeB8ue170006Ev, symObjAddr: 0x41CC, symBinAddr: 0x100006338, symSize: 0x1C }
  - { offsetInCU: 0x13651, offset: 0x13651, size: 0x8, addend: 0x0, symName: __ZNSt3__128__exception_guard_exceptionsINS_29_AllocatorDestroyRangeReverseINS_9allocatorINS_12basic_stringIcNS_11char_traitsIcEENS2_IcEEEEEENS_16reverse_iteratorIPS7_EEEEED1B8ue170006Ev, symObjAddr: 0x41E8, symBinAddr: 0x100006354, symSize: 0x2C }
  - { offsetInCU: 0x1367A, offset: 0x1367A, size: 0x8, addend: 0x0, symName: __ZNSt3__128__exception_guard_exceptionsINS_29_AllocatorDestroyRangeReverseINS_9allocatorINS_12basic_stringIcNS_11char_traitsIcEENS2_IcEEEEEENS_16reverse_iteratorIPS7_EEEEEC1B8ue170006ESC_, symObjAddr: 0x4214, symBinAddr: 0x100006380, symSize: 0x34 }
  - { offsetInCU: 0x136B2, offset: 0x136B2, size: 0x8, addend: 0x0, symName: __ZNSt3__128__exception_guard_exceptionsINS_29_AllocatorDestroyRangeReverseINS_9allocatorINS_12basic_stringIcNS_11char_traitsIcEENS2_IcEEEEEENS_16reverse_iteratorIPS7_EEEEEC2B8ue170006ESC_, symObjAddr: 0x4248, symBinAddr: 0x1000063B4, symSize: 0x30 }
  - { offsetInCU: 0x136EA, offset: 0x136EA, size: 0x8, addend: 0x0, symName: __ZNSt3__129_AllocatorDestroyRangeReverseINS_9allocatorINS_12basic_stringIcNS_11char_traitsIcEENS1_IcEEEEEENS_16reverse_iteratorIPS6_EEEC2B8ue170006ERS7_RSA_SD_, symObjAddr: 0x4278, symBinAddr: 0x1000063E4, symSize: 0x38 }
  - { offsetInCU: 0x13740, offset: 0x13740, size: 0x8, addend: 0x0, symName: __ZNSt3__19allocatorINS_12basic_stringIcNS_11char_traitsIcEENS0_IcEEEEE9constructB8ue170006IS5_JS5_EEEvPT_DpOT0_, symObjAddr: 0x42B0, symBinAddr: 0x10000641C, symSize: 0x30 }
  - { offsetInCU: 0x13795, offset: 0x13795, size: 0x8, addend: 0x0, symName: __ZNSt3__112basic_stringIcNS_11char_traitsIcEENS_9allocatorIcEEEC1B8ue170006EOS5_, symObjAddr: 0x42E0, symBinAddr: 0x10000644C, symSize: 0x34 }
  - { offsetInCU: 0x137CD, offset: 0x137CD, size: 0x8, addend: 0x0, symName: __ZNSt3__112basic_stringIcNS_11char_traitsIcEENS_9allocatorIcEEEC2B8ue170006EOS5_, symObjAddr: 0x4314, symBinAddr: 0x100006480, symSize: 0x48 }
  - { offsetInCU: 0x1380A, offset: 0x1380A, size: 0x8, addend: 0x0, symName: __ZNSt3__119__to_address_helperINS_16reverse_iteratorIPNS_12basic_stringIcNS_11char_traitsIcEENS_9allocatorIcEEEEEEvE6__callB8ue170006ERKS9_, symObjAddr: 0x435C, symBinAddr: 0x1000064C8, symSize: 0x38 }
  - { offsetInCU: 0x1382D, offset: 0x1382D, size: 0x8, addend: 0x0, symName: __ZNKSt3__116reverse_iteratorIPNS_12basic_stringIcNS_11char_traitsIcEENS_9allocatorIcEEEEEptB8ue170006Ev, symObjAddr: 0x4394, symBinAddr: 0x100006500, symSize: 0x24 }
  - { offsetInCU: 0x13852, offset: 0x13852, size: 0x8, addend: 0x0, symName: __ZNSt3__128__exception_guard_exceptionsINS_29_AllocatorDestroyRangeReverseINS_9allocatorINS_12basic_stringIcNS_11char_traitsIcEENS2_IcEEEEEENS_16reverse_iteratorIPS7_EEEEED2B8ue170006Ev, symObjAddr: 0x43B8, symBinAddr: 0x100006524, symSize: 0x50 }
  - { offsetInCU: 0x1387B, offset: 0x1387B, size: 0x8, addend: 0x0, symName: __ZNKSt3__129_AllocatorDestroyRangeReverseINS_9allocatorINS_12basic_stringIcNS_11char_traitsIcEENS1_IcEEEEEENS_16reverse_iteratorIPS6_EEEclB8ue170006Ev, symObjAddr: 0x4408, symBinAddr: 0x100006574, symSize: 0xB4 }
  - { offsetInCU: 0x138A1, offset: 0x138A1, size: 0x8, addend: 0x0, symName: __ZNSt3__116reverse_iteratorINS0_IPNS_12basic_stringIcNS_11char_traitsIcEENS_9allocatorIcEEEEEEEC1B8ue170006ES8_, symObjAddr: 0x452C, symBinAddr: 0x100006698, symSize: 0x3C }
  - { offsetInCU: 0x138D8, offset: 0x138D8, size: 0x8, addend: 0x0, symName: __ZNSt3__116allocator_traitsINS_9allocatorINS_12basic_stringIcNS_11char_traitsIcEENS1_IcEEEEEEE7destroyB8ue170006IS6_vEEvRS7_PT_, symObjAddr: 0x45C8, symBinAddr: 0x100006734, symSize: 0x2C }
  - { offsetInCU: 0x13915, offset: 0x13915, size: 0x8, addend: 0x0, symName: __ZNSt3__116reverse_iteratorINS0_IPNS_12basic_stringIcNS_11char_traitsIcEENS_9allocatorIcEEEEEEEppB8ue170006Ev, symObjAddr: 0x4618, symBinAddr: 0x100006784, symSize: 0x30 }
  - { offsetInCU: 0x1393A, offset: 0x1393A, size: 0x8, addend: 0x0, symName: __ZNKSt3__116reverse_iteratorINS0_IPNS_12basic_stringIcNS_11char_traitsIcEENS_9allocatorIcEEEEEEE4baseB8ue170006Ev, symObjAddr: 0x4648, symBinAddr: 0x1000067B4, symSize: 0x24 }
  - { offsetInCU: 0x1395F, offset: 0x1395F, size: 0x8, addend: 0x0, symName: __ZNSt3__19allocatorINS_12basic_stringIcNS_11char_traitsIcEENS0_IcEEEEE7destroyB8ue170006EPS5_, symObjAddr: 0x466C, symBinAddr: 0x1000067D8, symSize: 0x28 }
  - { offsetInCU: 0x13997, offset: 0x13997, size: 0x8, addend: 0x0, symName: __ZNSt3__119__to_address_helperINS_16reverse_iteratorINS1_IPNS_12basic_stringIcNS_11char_traitsIcEENS_9allocatorIcEEEEEEEEvE6__callB8ue170006ERKSA_, symObjAddr: 0x4694, symBinAddr: 0x100006800, symSize: 0x38 }
  - { offsetInCU: 0x139BA, offset: 0x139BA, size: 0x8, addend: 0x0, symName: __ZNKSt3__116reverse_iteratorINS0_IPNS_12basic_stringIcNS_11char_traitsIcEENS_9allocatorIcEEEEEEEptB8ue170006Ev, symObjAddr: 0x46CC, symBinAddr: 0x100006838, symSize: 0x24 }
  - { offsetInCU: 0x139DF, offset: 0x139DF, size: 0x8, addend: 0x0, symName: __ZNKSt3__116reverse_iteratorINS0_IPNS_12basic_stringIcNS_11char_traitsIcEENS_9allocatorIcEEEEEEEdeB8ue170006Ev, symObjAddr: 0x46F0, symBinAddr: 0x10000685C, symSize: 0x34 }
  - { offsetInCU: 0x13A12, offset: 0x13A12, size: 0x8, addend: 0x0, symName: __ZNSt3__116reverse_iteratorIPNS_12basic_stringIcNS_11char_traitsIcEENS_9allocatorIcEEEEEmmB8ue170006Ev, symObjAddr: 0x4724, symBinAddr: 0x100006890, symSize: 0x20 }
  - { offsetInCU: 0x13A37, offset: 0x13A37, size: 0x8, addend: 0x0, symName: __ZNSt3__116reverse_iteratorINS0_IPNS_12basic_stringIcNS_11char_traitsIcEENS_9allocatorIcEEEEEEEC2B8ue170006ES8_, symObjAddr: 0x4744, symBinAddr: 0x1000068B0, symSize: 0x2C }
  - { offsetInCU: 0x13A6E, offset: 0x13A6E, size: 0x8, addend: 0x0, symName: __ZNSt3__116reverse_iteratorIPNS_12basic_stringIcNS_11char_traitsIcEENS_9allocatorIcEEEEEC2B8ue170006ES7_, symObjAddr: 0x4770, symBinAddr: 0x1000068DC, symSize: 0x28 }
  - { offsetInCU: 0x13AA5, offset: 0x13AA5, size: 0x8, addend: 0x0, symName: __ZNSt3__114__split_bufferINS_12basic_stringIcNS_11char_traitsIcEENS_9allocatorIcEEEERNS4_IS6_EEED2Ev, symObjAddr: 0x4798, symBinAddr: 0x100006904, symSize: 0x8C }
  - { offsetInCU: 0x13AD0, offset: 0x13AD0, size: 0x8, addend: 0x0, symName: __ZNSt3__114__split_bufferINS_12basic_stringIcNS_11char_traitsIcEENS_9allocatorIcEEEERNS4_IS6_EEE5clearB8ue170006Ev, symObjAddr: 0x4824, symBinAddr: 0x100006990, symSize: 0x28 }
  - { offsetInCU: 0x13AF5, offset: 0x13AF5, size: 0x8, addend: 0x0, symName: __ZNSt3__116allocator_traitsINS_9allocatorINS_12basic_stringIcNS_11char_traitsIcEENS1_IcEEEEEEE10deallocateB8ue170006ERS7_PS6_m, symObjAddr: 0x484C, symBinAddr: 0x1000069B8, symSize: 0x34 }
  - { offsetInCU: 0x13B37, offset: 0x13B37, size: 0x8, addend: 0x0, symName: __ZNKSt3__114__split_bufferINS_12basic_stringIcNS_11char_traitsIcEENS_9allocatorIcEEEERNS4_IS6_EEE8capacityB8ue170006Ev, symObjAddr: 0x4880, symBinAddr: 0x1000069EC, symSize: 0x40 }
  - { offsetInCU: 0x13B5C, offset: 0x13B5C, size: 0x8, addend: 0x0, symName: __ZNSt3__114__split_bufferINS_12basic_stringIcNS_11char_traitsIcEENS_9allocatorIcEEEERNS4_IS6_EEE17__destruct_at_endB8ue170006EPS6_, symObjAddr: 0x48C0, symBinAddr: 0x100006A2C, symSize: 0x2C }
  - { offsetInCU: 0x13B8F, offset: 0x13B8F, size: 0x8, addend: 0x0, symName: __ZNSt3__114__split_bufferINS_12basic_stringIcNS_11char_traitsIcEENS_9allocatorIcEEEERNS4_IS6_EEE17__destruct_at_endB8ue170006EPS6_NS_17integral_constantIbLb0EEE, symObjAddr: 0x48EC, symBinAddr: 0x100006A58, symSize: 0x80 }
  - { offsetInCU: 0x13BCE, offset: 0x13BCE, size: 0x8, addend: 0x0, symName: __ZNSt3__19allocatorINS_12basic_stringIcNS_11char_traitsIcEENS0_IcEEEEE10deallocateB8ue170006EPS5_m, symObjAddr: 0x496C, symBinAddr: 0x100006AD8, symSize: 0x44 }
  - { offsetInCU: 0x13C0F, offset: 0x13C0F, size: 0x8, addend: 0x0, symName: __ZNKSt3__114__split_bufferINS_12basic_stringIcNS_11char_traitsIcEENS_9allocatorIcEEEERNS4_IS6_EEE9__end_capB8ue170006Ev, symObjAddr: 0x4A2C, symBinAddr: 0x100006B98, symSize: 0x28 }
  - { offsetInCU: 0x13C34, offset: 0x13C34, size: 0x8, addend: 0x0, symName: __ZNKSt3__117__compressed_pairIPNS_12basic_stringIcNS_11char_traitsIcEENS_9allocatorIcEEEERNS4_IS6_EEE5firstB8ue170006Ev, symObjAddr: 0x4A54, symBinAddr: 0x100006BC0, symSize: 0x24 }
  - { offsetInCU: 0x13C59, offset: 0x13C59, size: 0x8, addend: 0x0, symName: __ZNKSt3__111__wrap_iterIPNS_12basic_stringIcNS_11char_traitsIcEENS_9allocatorIcEEEEE4baseB8ue170006Ev, symObjAddr: 0x4AC0, symBinAddr: 0x100006C2C, symSize: 0x18 }
  - { offsetInCU: 0x13C7E, offset: 0x13C7E, size: 0x8, addend: 0x0, symName: __ZNSt3__118__unwrap_iter_implINS_11__wrap_iterIPNS_12basic_stringIcNS_11char_traitsIcEENS_9allocatorIcEEEEEELb1EE8__rewrapB8ue170006ES9_S8_, symObjAddr: 0x4BCC, symBinAddr: 0x100006D38, symSize: 0x5C }
  - { offsetInCU: 0x13CAF, offset: 0x13CAF, size: 0x8, addend: 0x0, symName: __ZNKSt3__111__wrap_iterIPNS_12basic_stringIcNS_11char_traitsIcEENS_9allocatorIcEEEEEplB8ue170006El, symObjAddr: 0x4C28, symBinAddr: 0x100006D94, symSize: 0x3C }
  - { offsetInCU: 0x13CF0, offset: 0x13CF0, size: 0x8, addend: 0x0, symName: __ZNSt3__111__wrap_iterIPNS_12basic_stringIcNS_11char_traitsIcEENS_9allocatorIcEEEEEpLB8ue170006El, symObjAddr: 0x4C88, symBinAddr: 0x100006DF4, symSize: 0x30 }
  - { offsetInCU: 0x13D2D, offset: 0x13D2D, size: 0x8, addend: 0x0, symName: __ZNSt3__119__to_address_helperINS_11__wrap_iterIPNS_12basic_stringIcNS_11char_traitsIcEENS_9allocatorIcEEEEEEvE6__callB8ue170006ERKS9_, symObjAddr: 0x4CB8, symBinAddr: 0x100006E24, symSize: 0x30 }
  - { offsetInCU: 0x13D50, offset: 0x13D50, size: 0x8, addend: 0x0, symName: __ZNSt3__114pointer_traitsINS_11__wrap_iterIPNS_12basic_stringIcNS_11char_traitsIcEENS_9allocatorIcEEEEEEE10to_addressB8ue170006ES9_, symObjAddr: 0x4CE8, symBinAddr: 0x100006E54, symSize: 0x2C }
  - { offsetInCU: 0x13D7D, offset: 0x13D7D, size: 0x8, addend: 0x0, symName: __ZNKSt3__110__identityclB8ue170006IRNS_12basic_stringIcNS_11char_traitsIcEENS_9allocatorIcEEEEEEOT_SA_, symObjAddr: 0x4D40, symBinAddr: 0x100006EAC, symSize: 0x18 }
  - { offsetInCU: 0x13DB9, offset: 0x13DB9, size: 0x8, addend: 0x0, symName: __ZNSt3__118__unwrap_iter_implINS_11__wrap_iterIPNS_12basic_stringIcNS_11char_traitsIcEENS_9allocatorIcEEEEEELb1EE8__unwrapB8ue170006ES9_, symObjAddr: 0x4D58, symBinAddr: 0x100006EC4, symSize: 0x28 }
  - { offsetInCU: 0x13DDC, offset: 0x13DDC, size: 0x8, addend: 0x0, symName: __ZNSt3__16vectorINS_12basic_stringIcNS_11char_traitsIcEENS_9allocatorIcEEEENS4_IS6_EEE11__make_iterB8ue170006EPS6_, symObjAddr: 0x4D80, symBinAddr: 0x100006EEC, symSize: 0x30 }
  - { offsetInCU: 0x13E10, offset: 0x13E10, size: 0x8, addend: 0x0, symName: __ZNSt3__111__wrap_iterIPNS_12basic_stringIcNS_11char_traitsIcEENS_9allocatorIcEEEEEC1B8ue170006ES7_, symObjAddr: 0x4DB0, symBinAddr: 0x100006F1C, symSize: 0x34 }
  - { offsetInCU: 0x13E47, offset: 0x13E47, size: 0x8, addend: 0x0, symName: __ZNSt3__111__wrap_iterIPNS_12basic_stringIcNS_11char_traitsIcEENS_9allocatorIcEEEEEC2B8ue170006ES7_, symObjAddr: 0x4DE4, symBinAddr: 0x100006F50, symSize: 0x20 }
  - { offsetInCU: 0x13E7E, offset: 0x13E7E, size: 0x8, addend: 0x0, symName: __ZNKSt3__112basic_stringIcNS_11char_traitsIcEENS_9allocatorIcEEE4dataB8ue170006Ev, symObjAddr: 0x4E04, symBinAddr: 0x100006F70, symSize: 0x28 }
  - { offsetInCU: 0x13EA3, offset: 0x13EA3, size: 0x8, addend: 0x0, symName: __ZNSt3__111char_traitsIcE7compareB8ue170006EPKcS3_m, symObjAddr: 0x4E2C, symBinAddr: 0x100006F98, symSize: 0x34 }
  - { offsetInCU: 0x13EE2, offset: 0x13EE2, size: 0x8, addend: 0x0, symName: __ZNKSt3__112basic_stringIcNS_11char_traitsIcEENS_9allocatorIcEEE13__get_pointerB8ue170006Ev, symObjAddr: 0x4E74, symBinAddr: 0x100006FE0, symSize: 0x54 }
  - { offsetInCU: 0x13F07, offset: 0x13F07, size: 0x8, addend: 0x0, symName: __ZNKSt3__112basic_stringIcNS_11char_traitsIcEENS_9allocatorIcEEE18__get_long_pointerB8ue170006Ev, symObjAddr: 0x4EC8, symBinAddr: 0x100007034, symSize: 0x28 }
  - { offsetInCU: 0x13F2C, offset: 0x13F2C, size: 0x8, addend: 0x0, symName: __ZNKSt3__112basic_stringIcNS_11char_traitsIcEENS_9allocatorIcEEE19__get_short_pointerB8ue170006Ev, symObjAddr: 0x4EF0, symBinAddr: 0x10000705C, symSize: 0x28 }
  - { offsetInCU: 0x13F51, offset: 0x13F51, size: 0x8, addend: 0x0, symName: __ZNSt3__114pointer_traitsIPKcE10pointer_toB8ue170006ERS1_, symObjAddr: 0x4F18, symBinAddr: 0x100007084, symSize: 0x14 }
  - { offsetInCU: 0x13F74, offset: 0x13F74, size: 0x8, addend: 0x0, symName: __ZNSt3__16vectorI4WordNS_9allocatorIS1_EEE9__end_capB8ue170006Ev, symObjAddr: 0x4F2C, symBinAddr: 0x100007098, symSize: 0x28 }
  - { offsetInCU: 0x13F9E, offset: 0x13F9E, size: 0x8, addend: 0x0, symName: __ZNSt3__16vectorI4WordNS_9allocatorIS1_EEE22__construct_one_at_endB8ue170006IJS1_EEEvDpOT_, symObjAddr: 0x4F54, symBinAddr: 0x1000070C0, symSize: 0x90 }
  - { offsetInCU: 0x13FEC, offset: 0x13FEC, size: 0x8, addend: 0x0, symName: __ZNSt3__16vectorI4WordNS_9allocatorIS1_EEE21__push_back_slow_pathIS1_EEvOT_, symObjAddr: 0x4FE4, symBinAddr: 0x100007150, symSize: 0xD8 }
  - { offsetInCU: 0x14048, offset: 0x14048, size: 0x8, addend: 0x0, symName: __ZNSt3__117__compressed_pairIP4WordNS_9allocatorIS1_EEE5firstB8ue170006Ev, symObjAddr: 0x50BC, symBinAddr: 0x100007228, symSize: 0x24 }
  - { offsetInCU: 0x1406D, offset: 0x1406D, size: 0x8, addend: 0x0, symName: __ZNSt3__122__compressed_pair_elemIP4WordLi0ELb0EE5__getB8ue170006Ev, symObjAddr: 0x50E0, symBinAddr: 0x10000724C, symSize: 0x14 }
  - { offsetInCU: 0x140AB, offset: 0x140AB, size: 0x8, addend: 0x0, symName: __ZNSt3__16vectorI4WordNS_9allocatorIS1_EEE21_ConstructTransactionC1B8ue170006ERS4_m, symObjAddr: 0x50F4, symBinAddr: 0x100007260, symSize: 0x3C }
  - { offsetInCU: 0x140F2, offset: 0x140F2, size: 0x8, addend: 0x0, symName: __ZNSt3__116allocator_traitsINS_9allocatorI4WordEEE9constructB8ue170006IS2_JS2_EvEEvRS3_PT_DpOT0_, symObjAddr: 0x5130, symBinAddr: 0x10000729C, symSize: 0x34 }
  - { offsetInCU: 0x14149, offset: 0x14149, size: 0x8, addend: 0x0, symName: __ZNSt3__16vectorI4WordNS_9allocatorIS1_EEE7__allocB8ue170006Ev, symObjAddr: 0x5164, symBinAddr: 0x1000072D0, symSize: 0x28 }
  - { offsetInCU: 0x1416E, offset: 0x1416E, size: 0x8, addend: 0x0, symName: __ZNSt3__16vectorI4WordNS_9allocatorIS1_EEE21_ConstructTransactionD1B8ue170006Ev, symObjAddr: 0x51A0, symBinAddr: 0x10000730C, symSize: 0x2C }
  - { offsetInCU: 0x14197, offset: 0x14197, size: 0x8, addend: 0x0, symName: __ZNSt3__16vectorI4WordNS_9allocatorIS1_EEE21_ConstructTransactionC2B8ue170006ERS4_m, symObjAddr: 0x51CC, symBinAddr: 0x100007338, symSize: 0x44 }
  - { offsetInCU: 0x141DE, offset: 0x141DE, size: 0x8, addend: 0x0, symName: __ZNSt3__19allocatorI4WordE9constructB8ue170006IS1_JS1_EEEvPT_DpOT0_, symObjAddr: 0x5210, symBinAddr: 0x10000737C, symSize: 0x30 }
  - { offsetInCU: 0x14233, offset: 0x14233, size: 0x8, addend: 0x0, symName: __ZN4WordC1EOS_, symObjAddr: 0x5240, symBinAddr: 0x1000073AC, symSize: 0x34 }
  - { offsetInCU: 0x14267, offset: 0x14267, size: 0x8, addend: 0x0, symName: __ZN4WordC2EOS_, symObjAddr: 0x5274, symBinAddr: 0x1000073E0, symSize: 0x40 }
  - { offsetInCU: 0x1429B, offset: 0x1429B, size: 0x8, addend: 0x0, symName: __ZNSt3__117__compressed_pairIP4WordNS_9allocatorIS1_EEE6secondB8ue170006Ev, symObjAddr: 0x52B4, symBinAddr: 0x100007420, symSize: 0x24 }
  - { offsetInCU: 0x142C0, offset: 0x142C0, size: 0x8, addend: 0x0, symName: __ZNSt3__122__compressed_pair_elemINS_9allocatorI4WordEELi1ELb1EE5__getB8ue170006Ev, symObjAddr: 0x52D8, symBinAddr: 0x100007444, symSize: 0x14 }
  - { offsetInCU: 0x142E5, offset: 0x142E5, size: 0x8, addend: 0x0, symName: __ZNSt3__16vectorI4WordNS_9allocatorIS1_EEE21_ConstructTransactionD2B8ue170006Ev, symObjAddr: 0x52EC, symBinAddr: 0x100007458, symSize: 0x20 }
  - { offsetInCU: 0x1430E, offset: 0x1430E, size: 0x8, addend: 0x0, symName: __ZNKSt3__16vectorI4WordNS_9allocatorIS1_EEE11__recommendB8ue170006Em, symObjAddr: 0x530C, symBinAddr: 0x100007478, symSize: 0xB4 }
  - { offsetInCU: 0x14361, offset: 0x14361, size: 0x8, addend: 0x0, symName: __ZNSt3__114__split_bufferI4WordRNS_9allocatorIS1_EEEC1EmmS4_, symObjAddr: 0x53C0, symBinAddr: 0x10000752C, symSize: 0x44 }
  - { offsetInCU: 0x143B6, offset: 0x143B6, size: 0x8, addend: 0x0, symName: __ZNSt3__114__split_bufferI4WordRNS_9allocatorIS1_EEED1Ev, symObjAddr: 0x5514, symBinAddr: 0x100007680, symSize: 0x2C }
  - { offsetInCU: 0x143E1, offset: 0x143E1, size: 0x8, addend: 0x0, symName: __ZNKSt3__16vectorI4WordNS_9allocatorIS1_EEE8max_sizeEv, symObjAddr: 0x5540, symBinAddr: 0x1000076AC, symSize: 0x60 }
  - { offsetInCU: 0x14407, offset: 0x14407, size: 0x8, addend: 0x0, symName: __ZNKSt3__16vectorI4WordNS_9allocatorIS1_EEE20__throw_length_errorB8ue170006Ev, symObjAddr: 0x55A0, symBinAddr: 0x10000770C, symSize: 0x1C }
  - { offsetInCU: 0x1442C, offset: 0x1442C, size: 0x8, addend: 0x0, symName: __ZNKSt3__16vectorI4WordNS_9allocatorIS1_EEE8capacityB8ue170006Ev, symObjAddr: 0x55BC, symBinAddr: 0x100007728, symSize: 0x40 }
  - { offsetInCU: 0x1445B, offset: 0x1445B, size: 0x8, addend: 0x0, symName: __ZNSt3__116allocator_traitsINS_9allocatorI4WordEEE8max_sizeB8ue170006IS3_vEEmRKS3_, symObjAddr: 0x55FC, symBinAddr: 0x100007768, symSize: 0x24 }
  - { offsetInCU: 0x14489, offset: 0x14489, size: 0x8, addend: 0x0, symName: __ZNKSt3__16vectorI4WordNS_9allocatorIS1_EEE7__allocB8ue170006Ev, symObjAddr: 0x5620, symBinAddr: 0x10000778C, symSize: 0x28 }
  - { offsetInCU: 0x144AE, offset: 0x144AE, size: 0x8, addend: 0x0, symName: __ZNKSt3__19allocatorI4WordE8max_sizeB8ue170006Ev, symObjAddr: 0x5648, symBinAddr: 0x1000077B4, symSize: 0x14 }
  - { offsetInCU: 0x144D3, offset: 0x144D3, size: 0x8, addend: 0x0, symName: __ZNKSt3__117__compressed_pairIP4WordNS_9allocatorIS1_EEE6secondB8ue170006Ev, symObjAddr: 0x565C, symBinAddr: 0x1000077C8, symSize: 0x24 }
  - { offsetInCU: 0x144F8, offset: 0x144F8, size: 0x8, addend: 0x0, symName: __ZNKSt3__122__compressed_pair_elemINS_9allocatorI4WordEELi1ELb1EE5__getB8ue170006Ev, symObjAddr: 0x5680, symBinAddr: 0x1000077EC, symSize: 0x14 }
  - { offsetInCU: 0x1451D, offset: 0x1451D, size: 0x8, addend: 0x0, symName: __ZNKSt3__16vectorI4WordNS_9allocatorIS1_EEE9__end_capB8ue170006Ev, symObjAddr: 0x5694, symBinAddr: 0x100007800, symSize: 0x28 }
  - { offsetInCU: 0x14542, offset: 0x14542, size: 0x8, addend: 0x0, symName: __ZNKSt3__117__compressed_pairIP4WordNS_9allocatorIS1_EEE5firstB8ue170006Ev, symObjAddr: 0x56BC, symBinAddr: 0x100007828, symSize: 0x24 }
  - { offsetInCU: 0x14567, offset: 0x14567, size: 0x8, addend: 0x0, symName: __ZNKSt3__122__compressed_pair_elemIP4WordLi0ELb0EE5__getB8ue170006Ev, symObjAddr: 0x56E0, symBinAddr: 0x10000784C, symSize: 0x14 }
  - { offsetInCU: 0x1458C, offset: 0x1458C, size: 0x8, addend: 0x0, symName: __ZNSt3__114__split_bufferI4WordRNS_9allocatorIS1_EEEC2EmmS4_, symObjAddr: 0x56F4, symBinAddr: 0x100007860, symSize: 0xD4 }
  - { offsetInCU: 0x145FE, offset: 0x145FE, size: 0x8, addend: 0x0, symName: __ZNSt3__117__compressed_pairIP4WordRNS_9allocatorIS1_EEEC1B8ue170006IDnS5_EEOT_OT0_, symObjAddr: 0x57C8, symBinAddr: 0x100007934, symSize: 0x3C }
  - { offsetInCU: 0x14655, offset: 0x14655, size: 0x8, addend: 0x0, symName: __ZNSt3__114__split_bufferI4WordRNS_9allocatorIS1_EEE7__allocB8ue170006Ev, symObjAddr: 0x5844, symBinAddr: 0x1000079B0, symSize: 0x28 }
  - { offsetInCU: 0x1467A, offset: 0x1467A, size: 0x8, addend: 0x0, symName: __ZNSt3__114__split_bufferI4WordRNS_9allocatorIS1_EEE9__end_capB8ue170006Ev, symObjAddr: 0x586C, symBinAddr: 0x1000079D8, symSize: 0x28 }
  - { offsetInCU: 0x1469F, offset: 0x1469F, size: 0x8, addend: 0x0, symName: __ZNSt3__117__compressed_pairIP4WordRNS_9allocatorIS1_EEEC2B8ue170006IDnS5_EEOT_OT0_, symObjAddr: 0x5894, symBinAddr: 0x100007A00, symSize: 0x48 }
  - { offsetInCU: 0x146F6, offset: 0x146F6, size: 0x8, addend: 0x0, symName: __ZNSt3__122__compressed_pair_elemIP4WordLi0ELb0EEC2B8ue170006IDnvEEOT_, symObjAddr: 0x58DC, symBinAddr: 0x100007A48, symSize: 0x1C }
  - { offsetInCU: 0x14737, offset: 0x14737, size: 0x8, addend: 0x0, symName: __ZNSt3__122__compressed_pair_elemIRNS_9allocatorI4WordEELi1ELb0EEC2B8ue170006IS4_vEEOT_, symObjAddr: 0x58F8, symBinAddr: 0x100007A64, symSize: 0x20 }
  - { offsetInCU: 0x14778, offset: 0x14778, size: 0x8, addend: 0x0, symName: __ZNSt3__19allocatorI4WordE8allocateB8ue170006Em, symObjAddr: 0x5918, symBinAddr: 0x100007A84, symSize: 0x58 }
  - { offsetInCU: 0x147AB, offset: 0x147AB, size: 0x8, addend: 0x0, symName: __ZNSt3__117__compressed_pairIP4WordRNS_9allocatorIS1_EEE6secondB8ue170006Ev, symObjAddr: 0x5970, symBinAddr: 0x100007ADC, symSize: 0x28 }
  - { offsetInCU: 0x147D0, offset: 0x147D0, size: 0x8, addend: 0x0, symName: __ZNSt3__122__compressed_pair_elemIRNS_9allocatorI4WordEELi1ELb0EE5__getB8ue170006Ev, symObjAddr: 0x5998, symBinAddr: 0x100007B04, symSize: 0x18 }
  - { offsetInCU: 0x147F5, offset: 0x147F5, size: 0x8, addend: 0x0, symName: __ZNSt3__117__compressed_pairIP4WordRNS_9allocatorIS1_EEE5firstB8ue170006Ev, symObjAddr: 0x59B0, symBinAddr: 0x100007B1C, symSize: 0x24 }
  - { offsetInCU: 0x1481A, offset: 0x1481A, size: 0x8, addend: 0x0, symName: __ZNKSt3__16vectorI4WordNS_9allocatorIS1_EEE17__annotate_deleteB8ue170006Ev, symObjAddr: 0x59D4, symBinAddr: 0x100007B40, symSize: 0xB8 }
  - { offsetInCU: 0x1483F, offset: 0x1483F, size: 0x8, addend: 0x0, symName: __ZNSt3__116reverse_iteratorIP4WordEC1B8ue170006ES2_, symObjAddr: 0x5BB8, symBinAddr: 0x100007D24, symSize: 0x34 }
  - { offsetInCU: 0x14876, offset: 0x14876, size: 0x8, addend: 0x0, symName: __ZNKSt3__116reverse_iteratorIP4WordE4baseB8ue170006Ev, symObjAddr: 0x5BEC, symBinAddr: 0x100007D58, symSize: 0x18 }
  - { offsetInCU: 0x1489B, offset: 0x1489B, size: 0x8, addend: 0x0, symName: __ZNKSt3__16vectorI4WordNS_9allocatorIS1_EEE14__annotate_newB8ue170006Em, symObjAddr: 0x5C40, symBinAddr: 0x100007DAC, symSize: 0xAC }
  - { offsetInCU: 0x148CF, offset: 0x148CF, size: 0x8, addend: 0x0, symName: __ZNKSt3__16vectorI4WordNS_9allocatorIS1_EEE31__annotate_contiguous_containerB8ue170006EPKvS6_S6_S6_, symObjAddr: 0x5CEC, symBinAddr: 0x100007E58, symSize: 0x20 }
  - { offsetInCU: 0x14924, offset: 0x14924, size: 0x8, addend: 0x0, symName: __ZNKSt3__16vectorI4WordNS_9allocatorIS1_EEE4dataB8ue170006Ev, symObjAddr: 0x5D0C, symBinAddr: 0x100007E78, symSize: 0x28 }
  - { offsetInCU: 0x14949, offset: 0x14949, size: 0x8, addend: 0x0, symName: __ZNSt3__129_AllocatorDestroyRangeReverseINS_9allocatorI4WordEENS_16reverse_iteratorIPS2_EEEC1B8ue170006ERS3_RS6_S9_, symObjAddr: 0x5D80, symBinAddr: 0x100007EEC, symSize: 0x44 }
  - { offsetInCU: 0x1499F, offset: 0x1499F, size: 0x8, addend: 0x0, symName: __ZNKSt3__116reverse_iteratorIP4WordEdeB8ue170006Ev, symObjAddr: 0x5E30, symBinAddr: 0x100007F9C, symSize: 0x28 }
  - { offsetInCU: 0x149D2, offset: 0x149D2, size: 0x8, addend: 0x0, symName: __ZNSt3__116reverse_iteratorIP4WordEppB8ue170006Ev, symObjAddr: 0x5E58, symBinAddr: 0x100007FC4, symSize: 0x20 }
  - { offsetInCU: 0x149F7, offset: 0x149F7, size: 0x8, addend: 0x0, symName: __ZNSt3__128__exception_guard_exceptionsINS_29_AllocatorDestroyRangeReverseINS_9allocatorI4WordEENS_16reverse_iteratorIPS3_EEEEE10__completeB8ue170006Ev, symObjAddr: 0x5E78, symBinAddr: 0x100007FE4, symSize: 0x1C }
  - { offsetInCU: 0x14A1C, offset: 0x14A1C, size: 0x8, addend: 0x0, symName: __ZNSt3__128__exception_guard_exceptionsINS_29_AllocatorDestroyRangeReverseINS_9allocatorI4WordEENS_16reverse_iteratorIPS3_EEEEED1B8ue170006Ev, symObjAddr: 0x5E94, symBinAddr: 0x100008000, symSize: 0x2C }
  - { offsetInCU: 0x14A45, offset: 0x14A45, size: 0x8, addend: 0x0, symName: __ZNSt3__128__exception_guard_exceptionsINS_29_AllocatorDestroyRangeReverseINS_9allocatorI4WordEENS_16reverse_iteratorIPS3_EEEEEC1B8ue170006ES8_, symObjAddr: 0x5EC0, symBinAddr: 0x10000802C, symSize: 0x34 }
  - { offsetInCU: 0x14A7D, offset: 0x14A7D, size: 0x8, addend: 0x0, symName: __ZNSt3__128__exception_guard_exceptionsINS_29_AllocatorDestroyRangeReverseINS_9allocatorI4WordEENS_16reverse_iteratorIPS3_EEEEEC2B8ue170006ES8_, symObjAddr: 0x5EF4, symBinAddr: 0x100008060, symSize: 0x30 }
  - { offsetInCU: 0x14AB5, offset: 0x14AB5, size: 0x8, addend: 0x0, symName: __ZNSt3__129_AllocatorDestroyRangeReverseINS_9allocatorI4WordEENS_16reverse_iteratorIPS2_EEEC2B8ue170006ERS3_RS6_S9_, symObjAddr: 0x5F24, symBinAddr: 0x100008090, symSize: 0x38 }
  - { offsetInCU: 0x14B10, offset: 0x14B10, size: 0x8, addend: 0x0, symName: __ZNSt3__119__to_address_helperINS_16reverse_iteratorIP4WordEEvE6__callB8ue170006ERKS4_, symObjAddr: 0x5F5C, symBinAddr: 0x1000080C8, symSize: 0x38 }
  - { offsetInCU: 0x14B33, offset: 0x14B33, size: 0x8, addend: 0x0, symName: __ZNKSt3__116reverse_iteratorIP4WordEptB8ue170006Ev, symObjAddr: 0x5F94, symBinAddr: 0x100008100, symSize: 0x24 }
  - { offsetInCU: 0x14B58, offset: 0x14B58, size: 0x8, addend: 0x0, symName: __ZNSt3__128__exception_guard_exceptionsINS_29_AllocatorDestroyRangeReverseINS_9allocatorI4WordEENS_16reverse_iteratorIPS3_EEEEED2B8ue170006Ev, symObjAddr: 0x5FB8, symBinAddr: 0x100008124, symSize: 0x50 }
  - { offsetInCU: 0x14B81, offset: 0x14B81, size: 0x8, addend: 0x0, symName: __ZNKSt3__129_AllocatorDestroyRangeReverseINS_9allocatorI4WordEENS_16reverse_iteratorIPS2_EEEclB8ue170006Ev, symObjAddr: 0x6008, symBinAddr: 0x100008174, symSize: 0xB4 }
  - { offsetInCU: 0x14BA7, offset: 0x14BA7, size: 0x8, addend: 0x0, symName: __ZNSt3__116reverse_iteratorINS0_IP4WordEEEC1B8ue170006ES3_, symObjAddr: 0x612C, symBinAddr: 0x100008298, symSize: 0x3C }
  - { offsetInCU: 0x14BDE, offset: 0x14BDE, size: 0x8, addend: 0x0, symName: __ZNSt3__116allocator_traitsINS_9allocatorI4WordEEE7destroyB8ue170006IS2_vEEvRS3_PT_, symObjAddr: 0x61C8, symBinAddr: 0x100008334, symSize: 0x2C }
  - { offsetInCU: 0x14C1B, offset: 0x14C1B, size: 0x8, addend: 0x0, symName: __ZNSt3__116reverse_iteratorINS0_IP4WordEEEppB8ue170006Ev, symObjAddr: 0x6218, symBinAddr: 0x100008384, symSize: 0x30 }
  - { offsetInCU: 0x14C40, offset: 0x14C40, size: 0x8, addend: 0x0, symName: __ZNKSt3__116reverse_iteratorINS0_IP4WordEEE4baseB8ue170006Ev, symObjAddr: 0x6248, symBinAddr: 0x1000083B4, symSize: 0x24 }
  - { offsetInCU: 0x14C65, offset: 0x14C65, size: 0x8, addend: 0x0, symName: __ZNSt3__19allocatorI4WordE7destroyB8ue170006EPS1_, symObjAddr: 0x626C, symBinAddr: 0x1000083D8, symSize: 0x28 }
  - { offsetInCU: 0x14C9D, offset: 0x14C9D, size: 0x8, addend: 0x0, symName: __ZNSt3__119__to_address_helperINS_16reverse_iteratorINS1_IP4WordEEEEvE6__callB8ue170006ERKS5_, symObjAddr: 0x6294, symBinAddr: 0x100008400, symSize: 0x38 }
  - { offsetInCU: 0x14CC0, offset: 0x14CC0, size: 0x8, addend: 0x0, symName: __ZNKSt3__116reverse_iteratorINS0_IP4WordEEEptB8ue170006Ev, symObjAddr: 0x62CC, symBinAddr: 0x100008438, symSize: 0x24 }
  - { offsetInCU: 0x14CE5, offset: 0x14CE5, size: 0x8, addend: 0x0, symName: __ZNKSt3__116reverse_iteratorINS0_IP4WordEEEdeB8ue170006Ev, symObjAddr: 0x62F0, symBinAddr: 0x10000845C, symSize: 0x34 }
  - { offsetInCU: 0x14D18, offset: 0x14D18, size: 0x8, addend: 0x0, symName: __ZNSt3__116reverse_iteratorIP4WordEmmB8ue170006Ev, symObjAddr: 0x6324, symBinAddr: 0x100008490, symSize: 0x20 }
  - { offsetInCU: 0x14D3D, offset: 0x14D3D, size: 0x8, addend: 0x0, symName: __ZNSt3__116reverse_iteratorINS0_IP4WordEEEC2B8ue170006ES3_, symObjAddr: 0x6344, symBinAddr: 0x1000084B0, symSize: 0x2C }
  - { offsetInCU: 0x14D74, offset: 0x14D74, size: 0x8, addend: 0x0, symName: __ZNSt3__116reverse_iteratorIP4WordEC2B8ue170006ES2_, symObjAddr: 0x6370, symBinAddr: 0x1000084DC, symSize: 0x28 }
  - { offsetInCU: 0x14DAB, offset: 0x14DAB, size: 0x8, addend: 0x0, symName: __ZNSt3__114__split_bufferI4WordRNS_9allocatorIS1_EEED2Ev, symObjAddr: 0x6398, symBinAddr: 0x100008504, symSize: 0x8C }
  - { offsetInCU: 0x14DD6, offset: 0x14DD6, size: 0x8, addend: 0x0, symName: __ZNSt3__114__split_bufferI4WordRNS_9allocatorIS1_EEE5clearB8ue170006Ev, symObjAddr: 0x6424, symBinAddr: 0x100008590, symSize: 0x28 }
  - { offsetInCU: 0x14DFB, offset: 0x14DFB, size: 0x8, addend: 0x0, symName: __ZNSt3__116allocator_traitsINS_9allocatorI4WordEEE10deallocateB8ue170006ERS3_PS2_m, symObjAddr: 0x644C, symBinAddr: 0x1000085B8, symSize: 0x34 }
  - { offsetInCU: 0x14E3D, offset: 0x14E3D, size: 0x8, addend: 0x0, symName: __ZNKSt3__114__split_bufferI4WordRNS_9allocatorIS1_EEE8capacityB8ue170006Ev, symObjAddr: 0x6480, symBinAddr: 0x1000085EC, symSize: 0x40 }
  - { offsetInCU: 0x14E62, offset: 0x14E62, size: 0x8, addend: 0x0, symName: __ZNSt3__114__split_bufferI4WordRNS_9allocatorIS1_EEE17__destruct_at_endB8ue170006EPS1_, symObjAddr: 0x64C0, symBinAddr: 0x10000862C, symSize: 0x2C }
  - { offsetInCU: 0x14E95, offset: 0x14E95, size: 0x8, addend: 0x0, symName: __ZNSt3__114__split_bufferI4WordRNS_9allocatorIS1_EEE17__destruct_at_endB8ue170006EPS1_NS_17integral_constantIbLb0EEE, symObjAddr: 0x64EC, symBinAddr: 0x100008658, symSize: 0x80 }
  - { offsetInCU: 0x14ED4, offset: 0x14ED4, size: 0x8, addend: 0x0, symName: __ZNSt3__19allocatorI4WordE10deallocateB8ue170006EPS1_m, symObjAddr: 0x656C, symBinAddr: 0x1000086D8, symSize: 0x40 }
  - { offsetInCU: 0x14F15, offset: 0x14F15, size: 0x8, addend: 0x0, symName: __ZNKSt3__114__split_bufferI4WordRNS_9allocatorIS1_EEE9__end_capB8ue170006Ev, symObjAddr: 0x65AC, symBinAddr: 0x100008718, symSize: 0x28 }
  - { offsetInCU: 0x14F3A, offset: 0x14F3A, size: 0x8, addend: 0x0, symName: __ZNKSt3__117__compressed_pairIP4WordRNS_9allocatorIS1_EEE5firstB8ue170006Ev, symObjAddr: 0x65D4, symBinAddr: 0x100008740, symSize: 0x24 }
  - { offsetInCU: 0x14F5F, offset: 0x14F5F, size: 0x8, addend: 0x0, symName: __ZN4WordC2ENSt3__112basic_stringIcNS0_11char_traitsIcEENS0_9allocatorIcEEEEi, symObjAddr: 0x65F8, symBinAddr: 0x100008764, symSize: 0x74 }
  - { offsetInCU: 0x14FA5, offset: 0x14FA5, size: 0x8, addend: 0x0, symName: __ZN4WordD2Ev, symObjAddr: 0x666C, symBinAddr: 0x1000087D8, symSize: 0x2C }
  - { offsetInCU: 0x14FDA, offset: 0x14FDA, size: 0x8, addend: 0x0, symName: __ZZN20WordFrequencyCounter18CountWordFrequencyENSt3__112basic_stringIcNS0_11char_traitsIcEENS0_9allocatorIcEEEEENKUl4WordS7_E_clES7_S7_, symObjAddr: 0x6EE4, symBinAddr: 0x100009050, symSize: 0x34 }
  - { offsetInCU: 0x15021, offset: 0x15021, size: 0x8, addend: 0x0, symName: __ZN4WordC1ERKS_, symObjAddr: 0x6F18, symBinAddr: 0x100009084, symSize: 0x34 }
  - { offsetInCU: 0x15055, offset: 0x15055, size: 0x8, addend: 0x0, symName: __ZNSt3__18_IterOpsINS_17_ClassicAlgPolicyEE9iter_swapB8ue170006IRP4WordS6_EEvOT_OT0_, symObjAddr: 0x6F4C, symBinAddr: 0x1000090B8, symSize: 0x34 }
  - { offsetInCU: 0x1509D, offset: 0x1509D, size: 0x8, addend: 0x0, symName: __ZNSt3__18_IterOpsINS_17_ClassicAlgPolicyEE9iter_swapB8ue170006IRP4WordS5_EEvOT_OT0_, symObjAddr: 0x792C, symBinAddr: 0x100009A98, symSize: 0x34 }
  - { offsetInCU: 0x150E0, offset: 0x150E0, size: 0x8, addend: 0x0, symName: __ZN4WordC2ERKS_, symObjAddr: 0x8DDC, symBinAddr: 0x10000AF48, symSize: 0x40 }
  - { offsetInCU: 0x15114, offset: 0x15114, size: 0x8, addend: 0x0, symName: __ZN4WordaSEOS_, symObjAddr: 0x8E98, symBinAddr: 0x10000B004, symSize: 0x40 }
  - { offsetInCU: 0x15144, offset: 0x15144, size: 0x8, addend: 0x0, symName: __ZNSt3__112basic_stringIcNS_11char_traitsIcEENS_9allocatorIcEEEaSB8ue170006EOS5_, symObjAddr: 0x8ED8, symBinAddr: 0x10000B044, symSize: 0x34 }
  - { offsetInCU: 0x15178, offset: 0x15178, size: 0x8, addend: 0x0, symName: __ZNSt3__112basic_stringIcNS_11char_traitsIcEENS_9allocatorIcEEE13__move_assignB8ue170006ERS5_NS_17integral_constantIbLb1EEE, symObjAddr: 0x8F0C, symBinAddr: 0x10000B078, symSize: 0xC8 }
  - { offsetInCU: 0x151B9, offset: 0x151B9, size: 0x8, addend: 0x0, symName: __ZNSt3__116allocator_traitsINS_9allocatorIcEEE10deallocateB8ue170006ERS2_Pcm, symObjAddr: 0x8FD4, symBinAddr: 0x10000B140, symSize: 0x34 }
  - { offsetInCU: 0x151FB, offset: 0x151FB, size: 0x8, addend: 0x0, symName: __ZNSt3__112basic_stringIcNS_11char_traitsIcEENS_9allocatorIcEEE7__allocB8ue170006Ev, symObjAddr: 0x9008, symBinAddr: 0x10000B174, symSize: 0x24 }
  - { offsetInCU: 0x15220, offset: 0x15220, size: 0x8, addend: 0x0, symName: __ZNKSt3__112basic_stringIcNS_11char_traitsIcEENS_9allocatorIcEEE14__get_long_capB8ue170006Ev, symObjAddr: 0x902C, symBinAddr: 0x10000B198, symSize: 0x30 }
  - { offsetInCU: 0x15245, offset: 0x15245, size: 0x8, addend: 0x0, symName: __ZNSt3__112basic_stringIcNS_11char_traitsIcEENS_9allocatorIcEEE19__move_assign_allocB8ue170006ERS5_, symObjAddr: 0x905C, symBinAddr: 0x10000B1C8, symSize: 0x2C }
  - { offsetInCU: 0x15279, offset: 0x15279, size: 0x8, addend: 0x0, symName: __ZNSt3__19allocatorIcE10deallocateB8ue170006EPcm, symObjAddr: 0x9088, symBinAddr: 0x10000B1F4, symSize: 0x40 }
  - { offsetInCU: 0x152BA, offset: 0x152BA, size: 0x8, addend: 0x0, symName: __ZNSt3__117__compressed_pairINS_12basic_stringIcNS_11char_traitsIcEENS_9allocatorIcEEE5__repES5_E6secondB8ue170006Ev, symObjAddr: 0x90C8, symBinAddr: 0x10000B234, symSize: 0x24 }
  - { offsetInCU: 0x152DF, offset: 0x152DF, size: 0x8, addend: 0x0, symName: __ZNSt3__122__compressed_pair_elemINS_9allocatorIcEELi1ELb1EE5__getB8ue170006Ev, symObjAddr: 0x90EC, symBinAddr: 0x10000B258, symSize: 0x14 }
  - { offsetInCU: 0x15304, offset: 0x15304, size: 0x8, addend: 0x0, symName: __ZNSt3__112basic_stringIcNS_11char_traitsIcEENS_9allocatorIcEEE19__move_assign_allocB8ue170006ERS5_NS_17integral_constantIbLb1EEE, symObjAddr: 0x9100, symBinAddr: 0x10000B26C, symSize: 0x38 }
  - { offsetInCU: 0x15344, offset: 0x15344, size: 0x8, addend: 0x0, symName: __ZNSt3__18_IterOpsINS_17_ClassicAlgPolicyEE11__iter_moveB8ue170006IRP4WordEENS_9enable_ifIXsr12is_referenceIDTdeclsr3stdE7declvalIRT_EEEEE5valueEDTclsr3stdE4movedeclsr3stdE7declvalIS9_EEEEE4typeEOS8_, symObjAddr: 0x9598, symBinAddr: 0x10000B704, symSize: 0x28 }
  - { offsetInCU: 0x15370, offset: 0x15370, size: 0x8, addend: 0x0, symName: __ZNSt3__18_IterOpsINS_17_ClassicAlgPolicyEE25__validate_iter_referenceB8ue170006IRP4WordEEvv, symObjAddr: 0x95C0, symBinAddr: 0x10000B72C, symSize: 0x4 }
  - { offsetInCU: 0x1538E, offset: 0x1538E, size: 0x8, addend: 0x0, symName: __ZNSt3__18_IterOpsINS_17_ClassicAlgPolicyEE4nextB8ue170006IP4WordEET_S6_S6_, symObjAddr: 0x95C4, symBinAddr: 0x10000B730, symSize: 0x18 }
  - { offsetInCU: 0x153C5, offset: 0x153C5, size: 0x8, addend: 0x0, symName: __ZNSt3__18_IterOpsINS_17_ClassicAlgPolicyEE9iter_swapB8ue170006IP4WordS5_EEvOT_OT0_, symObjAddr: 0xAC10, symBinAddr: 0x10000CD7C, symSize: 0x34 }
  - { offsetInCU: 0x15421, offset: 0x15421, size: 0x8, addend: 0x0, symName: __ZNSt3__14pairIP4WordbEC1B8ue170006IRS2_RbLPv0EEEOT_OT0_, symObjAddr: 0xAC60, symBinAddr: 0x10000CDCC, symSize: 0x3C }
  - { offsetInCU: 0x1547E, offset: 0x1547E, size: 0x8, addend: 0x0, symName: __ZNSt3__14pairIP4WordbEC2B8ue170006IRS2_RbLPv0EEEOT_OT0_, symObjAddr: 0xAC9C, symBinAddr: 0x10000CE08, symSize: 0x38 }
  - { offsetInCU: 0x154DB, offset: 0x154DB, size: 0x8, addend: 0x0, symName: __ZNSt3__118__unwrap_iter_implINS_11__wrap_iterIP4WordEELb1EE8__unwrapB8ue170006ES4_, symObjAddr: 0xACD4, symBinAddr: 0x10000CE40, symSize: 0x28 }
  - { offsetInCU: 0x15508, offset: 0x15508, size: 0x8, addend: 0x0, symName: __ZNSt3__119__to_address_helperINS_11__wrap_iterIP4WordEEvE6__callB8ue170006ERKS4_, symObjAddr: 0xAD20, symBinAddr: 0x10000CE8C, symSize: 0x30 }
  - { offsetInCU: 0x1552B, offset: 0x1552B, size: 0x8, addend: 0x0, symName: __ZNSt3__114pointer_traitsINS_11__wrap_iterIP4WordEEE10to_addressB8ue170006ES4_, symObjAddr: 0xAD50, symBinAddr: 0x10000CEBC, symSize: 0x2C }
  - { offsetInCU: 0x1554E, offset: 0x1554E, size: 0x8, addend: 0x0, symName: __ZNKSt3__111__wrap_iterIP4WordE4baseB8ue170006Ev, symObjAddr: 0xAD7C, symBinAddr: 0x10000CEE8, symSize: 0x18 }
  - { offsetInCU: 0x15573, offset: 0x15573, size: 0x8, addend: 0x0, symName: __ZNSt3__16vectorI4WordNS_9allocatorIS1_EEE11__make_iterB8ue170006EPS1_, symObjAddr: 0xAD94, symBinAddr: 0x10000CF00, symSize: 0x30 }
  - { offsetInCU: 0x155A7, offset: 0x155A7, size: 0x8, addend: 0x0, symName: __ZNSt3__111__wrap_iterIP4WordEC1B8ue170006ES2_, symObjAddr: 0xADC4, symBinAddr: 0x10000CF30, symSize: 0x34 }
  - { offsetInCU: 0x155DE, offset: 0x155DE, size: 0x8, addend: 0x0, symName: __ZNSt3__111__wrap_iterIP4WordEC2B8ue170006ES2_, symObjAddr: 0xADF8, symBinAddr: 0x10000CF64, symSize: 0x20 }
  - { offsetInCU: 0x15615, offset: 0x15615, size: 0x8, addend: 0x0, symName: __ZNSt3__118basic_stringstreamIcNS_11char_traitsIcEENS_9allocatorIcEEED2Ev, symObjAddr: 0xAE18, symBinAddr: 0x10000CF84, symSize: 0x6C }
  - { offsetInCU: 0x1564D, offset: 0x1564D, size: 0x8, addend: 0x0, symName: __ZThn16_NSt3__118basic_stringstreamIcNS_11char_traitsIcEENS_9allocatorIcEEED1Ev, symObjAddr: 0xAE84, symBinAddr: 0x10000CFF0, symSize: 0x1C }
  - { offsetInCU: 0x15664, offset: 0x15664, size: 0x8, addend: 0x0, symName: __ZTv0_n24_NSt3__118basic_stringstreamIcNS_11char_traitsIcEENS_9allocatorIcEEED1Ev, symObjAddr: 0xAEA0, symBinAddr: 0x10000D00C, symSize: 0x28 }
  - { offsetInCU: 0x15680, offset: 0x15680, size: 0x8, addend: 0x0, symName: __ZNSt3__115basic_stringbufIcNS_11char_traitsIcEENS_9allocatorIcEEED1Ev, symObjAddr: 0xAEC8, symBinAddr: 0x10000D034, symSize: 0x2C }
  - { offsetInCU: 0x156AC, offset: 0x156AC, size: 0x8, addend: 0x0, symName: __ZNSt3__115basic_stringbufIcNS_11char_traitsIcEENS_9allocatorIcEEED2Ev, symObjAddr: 0xAEF4, symBinAddr: 0x10000D060, symSize: 0x48 }
  - { offsetInCU: 0x156D8, offset: 0x156D8, size: 0x8, addend: 0x0, symName: __ZNSt3__16vectorINS_12basic_stringIcNS_11char_traitsIcEENS_9allocatorIcEEEENS4_IS6_EEED2B8ue170006Ev, symObjAddr: 0xAF3C, symBinAddr: 0x10000D0A8, symSize: 0x44 }
  - { offsetInCU: 0x15701, offset: 0x15701, size: 0x8, addend: 0x0, symName: __ZNSt3__16vectorINS_12basic_stringIcNS_11char_traitsIcEENS_9allocatorIcEEEENS4_IS6_EEE16__destroy_vectorC1B8ue170006ERS8_, symObjAddr: 0xAF80, symBinAddr: 0x10000D0EC, symSize: 0x34 }
  - { offsetInCU: 0x15739, offset: 0x15739, size: 0x8, addend: 0x0, symName: __ZNSt3__16vectorINS_12basic_stringIcNS_11char_traitsIcEENS_9allocatorIcEEEENS4_IS6_EEE16__destroy_vectorclB8ue170006Ev, symObjAddr: 0xAFB4, symBinAddr: 0x10000D120, symSize: 0x90 }
  - { offsetInCU: 0x1575E, offset: 0x1575E, size: 0x8, addend: 0x0, symName: __ZNSt3__16vectorINS_12basic_stringIcNS_11char_traitsIcEENS_9allocatorIcEEEENS4_IS6_EEE16__destroy_vectorC2B8ue170006ERS8_, symObjAddr: 0xB044, symBinAddr: 0x10000D1B0, symSize: 0x20 }
  - { offsetInCU: 0x15796, offset: 0x15796, size: 0x8, addend: 0x0, symName: __ZNSt3__16vectorINS_12basic_stringIcNS_11char_traitsIcEENS_9allocatorIcEEEENS4_IS6_EEE7__clearB8ue170006Ev, symObjAddr: 0xB064, symBinAddr: 0x10000D1D0, symSize: 0x28 }
  - { offsetInCU: 0x157BB, offset: 0x157BB, size: 0x8, addend: 0x0, symName: __ZNSt3__16vectorINS_12basic_stringIcNS_11char_traitsIcEENS_9allocatorIcEEEENS4_IS6_EEE22__base_destruct_at_endB8ue170006EPS6_, symObjAddr: 0xB08C, symBinAddr: 0x10000D1F8, symSize: 0x8C }
  - { offsetInCU: 0x157FE, offset: 0x157FE, size: 0x8, addend: 0x0, symName: __ZNSt3__114basic_ofstreamIcNS_11char_traitsIcEEED2Ev, symObjAddr: 0xB118, symBinAddr: 0x10000D284, symSize: 0x64 }
  - { offsetInCU: 0x15836, offset: 0x15836, size: 0x8, addend: 0x0, symName: __ZTv0_n24_NSt3__114basic_ofstreamIcNS_11char_traitsIcEEED1Ev, symObjAddr: 0xB17C, symBinAddr: 0x10000D2E8, symSize: 0x28 }
  - { offsetInCU: 0x1584D, offset: 0x1584D, size: 0x8, addend: 0x0, symName: __ZNSt3__114basic_ifstreamIcNS_11char_traitsIcEEED2Ev, symObjAddr: 0xB1A4, symBinAddr: 0x10000D310, symSize: 0x64 }
  - { offsetInCU: 0x15885, offset: 0x15885, size: 0x8, addend: 0x0, symName: __ZTv0_n24_NSt3__114basic_ifstreamIcNS_11char_traitsIcEEED1Ev, symObjAddr: 0xB208, symBinAddr: 0x10000D374, symSize: 0x28 }
  - { offsetInCU: 0x1589C, offset: 0x1589C, size: 0x8, addend: 0x0, symName: __ZNSt3__16vectorI4WordNS_9allocatorIS1_EEEC2B8ue170006Ev, symObjAddr: 0xB230, symBinAddr: 0x10000D39C, symSize: 0x4C }
  - { offsetInCU: 0x158C5, offset: 0x158C5, size: 0x8, addend: 0x0, symName: __ZNSt3__117__compressed_pairIP4WordNS_9allocatorIS1_EEEC1B8ue170006IDnNS_18__default_init_tagEEEOT_OT0_, symObjAddr: 0xB27C, symBinAddr: 0x10000D3E8, symSize: 0x3C }
  - { offsetInCU: 0x1591C, offset: 0x1591C, size: 0x8, addend: 0x0, symName: __ZNSt3__117__compressed_pairIP4WordNS_9allocatorIS1_EEEC2B8ue170006IDnNS_18__default_init_tagEEEOT_OT0_, symObjAddr: 0xB2B8, symBinAddr: 0x10000D424, symSize: 0x40 }
  - { offsetInCU: 0x15973, offset: 0x15973, size: 0x8, addend: 0x0, symName: __ZNSt3__122__compressed_pair_elemINS_9allocatorI4WordEELi1ELb1EEC2B8ue170006ENS_18__default_init_tagE, symObjAddr: 0xB2F8, symBinAddr: 0x10000D464, symSize: 0x2C }
  - { offsetInCU: 0x159A7, offset: 0x159A7, size: 0x8, addend: 0x0, symName: __ZNSt3__19allocatorI4WordEC2B8ue170006Ev, symObjAddr: 0xB324, symBinAddr: 0x10000D490, symSize: 0x2C }
  - { offsetInCU: 0x159D0, offset: 0x159D0, size: 0x8, addend: 0x0, symName: __ZNSt3__116__non_trivial_ifILb1ENS_9allocatorI4WordEEEC2B8ue170006Ev, symObjAddr: 0xB350, symBinAddr: 0x10000D4BC, symSize: 0x14 }
  - { offsetInCU: 0x159F9, offset: 0x159F9, size: 0x8, addend: 0x0, symName: __ZNSt3__16vectorI4WordNS_9allocatorIS1_EEED2B8ue170006Ev, symObjAddr: 0xB364, symBinAddr: 0x10000D4D0, symSize: 0x44 }
  - { offsetInCU: 0x15A22, offset: 0x15A22, size: 0x8, addend: 0x0, symName: __ZNSt3__16vectorI4WordNS_9allocatorIS1_EEE16__destroy_vectorC1B8ue170006ERS4_, symObjAddr: 0xB3A8, symBinAddr: 0x10000D514, symSize: 0x34 }
  - { offsetInCU: 0x15A5A, offset: 0x15A5A, size: 0x8, addend: 0x0, symName: __ZNSt3__16vectorI4WordNS_9allocatorIS1_EEE16__destroy_vectorclB8ue170006Ev, symObjAddr: 0xB3DC, symBinAddr: 0x10000D548, symSize: 0x90 }
  - { offsetInCU: 0x15A7F, offset: 0x15A7F, size: 0x8, addend: 0x0, symName: __ZNSt3__16vectorI4WordNS_9allocatorIS1_EEE16__destroy_vectorC2B8ue170006ERS4_, symObjAddr: 0xB46C, symBinAddr: 0x10000D5D8, symSize: 0x20 }
  - { offsetInCU: 0x15AB7, offset: 0x15AB7, size: 0x8, addend: 0x0, symName: __ZNSt3__16vectorI4WordNS_9allocatorIS1_EEE7__clearB8ue170006Ev, symObjAddr: 0xB48C, symBinAddr: 0x10000D5F8, symSize: 0x28 }
  - { offsetInCU: 0x15ADC, offset: 0x15ADC, size: 0x8, addend: 0x0, symName: __ZNSt3__16vectorI4WordNS_9allocatorIS1_EEE22__base_destruct_at_endB8ue170006EPS1_, symObjAddr: 0xB4B4, symBinAddr: 0x10000D620, symSize: 0x8C }
  - { offsetInCU: 0x15B1F, offset: 0x15B1F, size: 0x8, addend: 0x0, symName: __ZNKSt3__19basic_iosIcNS_11char_traitsIcEEE4failB8ue170006Ev, symObjAddr: 0xB540, symBinAddr: 0x10000D6AC, symSize: 0x28 }
  - { offsetInCU: 0x15B44, offset: 0x15B44, size: 0x8, addend: 0x0, symName: __ZNKSt3__18ios_base4failB8ue170006Ev, symObjAddr: 0xB568, symBinAddr: 0x10000D6D4, symSize: 0x28 }
  - { offsetInCU: 0x15B6B, offset: 0x15B6B, size: 0x8, addend: 0x0, symName: __ZNSt3__113basic_ostreamIcNS_11char_traitsIcEEEC2B8ue170006EPNS_15basic_streambufIcS2_EE, symObjAddr: 0xB590, symBinAddr: 0x10000D6FC, symSize: 0x60 }
  - { offsetInCU: 0x15BAE, offset: 0x15BAE, size: 0x8, addend: 0x0, symName: __ZNSt3__112basic_stringIcNS_11char_traitsIcEENS_9allocatorIcEEEC2B8ue170006ILi0EEEPKc, symObjAddr: 0xB5F0, symBinAddr: 0x10000D75C, symSize: 0x58 }
  - { offsetInCU: 0x15BEC, offset: 0x15BEC, size: 0x8, addend: 0x0, symName: __ZNSt3__111char_traitsIcE6lengthB8ue170006EPKc, symObjAddr: 0xB648, symBinAddr: 0x10000D7B4, symSize: 0x34 }
  - { offsetInCU: 0x15C0F, offset: 0x15C0F, size: 0x8, addend: 0x0, symName: __ZNSt3__16vectorI4WordNS_9allocatorIS1_EEE13__move_assignERS4_NS_17integral_constantIbLb1EEE, symObjAddr: 0xB6A0, symBinAddr: 0x10000D80C, symSize: 0x94 }
  - { offsetInCU: 0x15C50, offset: 0x15C50, size: 0x8, addend: 0x0, symName: __ZNSt3__16vectorI4WordNS_9allocatorIS1_EEE13__vdeallocateEv, symObjAddr: 0xB734, symBinAddr: 0x10000D8A0, symSize: 0x94 }
  - { offsetInCU: 0x15C76, offset: 0x15C76, size: 0x8, addend: 0x0, symName: __ZNSt3__16vectorI4WordNS_9allocatorIS1_EEE19__move_assign_allocB8ue170006ERS4_, symObjAddr: 0xB7C8, symBinAddr: 0x10000D934, symSize: 0x2C }
  - { offsetInCU: 0x15CAA, offset: 0x15CAA, size: 0x8, addend: 0x0, symName: __ZNSt3__16vectorI4WordNS_9allocatorIS1_EEE5clearB8ue170006Ev, symObjAddr: 0xB7F4, symBinAddr: 0x10000D960, symSize: 0x44 }
  - { offsetInCU: 0x15CDE, offset: 0x15CDE, size: 0x8, addend: 0x0, symName: __ZNKSt3__16vectorI4WordNS_9allocatorIS1_EEE17__annotate_shrinkB8ue170006Em, symObjAddr: 0xB838, symBinAddr: 0x10000D9A4, symSize: 0xB4 }
  - { offsetInCU: 0x15D12, offset: 0x15D12, size: 0x8, addend: 0x0, symName: __ZNSt3__16vectorI4WordNS_9allocatorIS1_EEE19__move_assign_allocB8ue170006ERS4_NS_17integral_constantIbLb1EEE, symObjAddr: 0xB8EC, symBinAddr: 0x10000DA58, symSize: 0x38 }
  - { offsetInCU: 0x15D52, offset: 0x15D52, size: 0x8, addend: 0x0, symName: __ZNSt3__116allocator_traitsINS_9allocatorIcEEE37select_on_container_copy_constructionB8ue170006IS2_vvEES2_RKS2_, symObjAddr: 0xB924, symBinAddr: 0x10000DA90, symSize: 0x10 }
  - { offsetInCU: 0x15D81, offset: 0x15D81, size: 0x8, addend: 0x0, symName: __ZNSt3__112basic_stringIcNS_11char_traitsIcEENS_9allocatorIcEEEC1B8ue170006ENS_24__uninitialized_size_tagEmRKS4_, symObjAddr: 0xB934, symBinAddr: 0x10000DAA0, symSize: 0x3C }
  - { offsetInCU: 0x15DD4, offset: 0x15DD4, size: 0x8, addend: 0x0, symName: __ZNSt3__111char_traitsIcE4copyB8ue170006EPcPKcm, symObjAddr: 0xB984, symBinAddr: 0x10000DAF0, symSize: 0x40 }
  - { offsetInCU: 0x15E13, offset: 0x15E13, size: 0x8, addend: 0x0, symName: __ZNSt3__111char_traitsIcE6assignB8ue170006EPcmc, symObjAddr: 0xB9C4, symBinAddr: 0x10000DB30, symSize: 0x44 }
  - { offsetInCU: 0x15E52, offset: 0x15E52, size: 0x8, addend: 0x0, symName: __ZNSt3__112basic_stringIcNS_11char_traitsIcEENS_9allocatorIcEEEC2B8ue170006ENS_24__uninitialized_size_tagEmRKS4_, symObjAddr: 0xBA08, symBinAddr: 0x10000DB74, symSize: 0x110 }
  - { offsetInCU: 0x15ED1, offset: 0x15ED1, size: 0x8, addend: 0x0, symName: __ZNKSt3__112basic_stringIcNS_11char_traitsIcEENS_9allocatorIcEEE20__throw_length_errorB8ue170006Ev, symObjAddr: 0xBB18, symBinAddr: 0x10000DC84, symSize: 0x1C }
  - { offsetInCU: 0x15EF6, offset: 0x15EF6, size: 0x8, addend: 0x0, symName: __ZNSt3__112basic_stringIcNS_11char_traitsIcEENS_9allocatorIcEEE13__fits_in_ssoB8ue170006Em, symObjAddr: 0xBB34, symBinAddr: 0x10000DCA0, symSize: 0x20 }
  - { offsetInCU: 0x15F1A, offset: 0x15F1A, size: 0x8, addend: 0x0, symName: __ZNSt3__112basic_stringIcNS_11char_traitsIcEENS_9allocatorIcEEE11__recommendB8ue170006Em, symObjAddr: 0xBB54, symBinAddr: 0x10000DCC0, symSize: 0x84 }
  - { offsetInCU: 0x15F4D, offset: 0x15F4D, size: 0x8, addend: 0x0, symName: __ZNSt3__116allocator_traitsINS_9allocatorIcEEE8allocateB8ue170006ERS2_m, symObjAddr: 0xBBD8, symBinAddr: 0x10000DD44, symSize: 0x2C }
  - { offsetInCU: 0x15F80, offset: 0x15F80, size: 0x8, addend: 0x0, symName: __ZNSt3__112basic_stringIcNS_11char_traitsIcEENS_9allocatorIcEEE16__begin_lifetimeB8ue170006EPcm, symObjAddr: 0xBC04, symBinAddr: 0x10000DD70, symSize: 0x14 }
  - { offsetInCU: 0x15FB3, offset: 0x15FB3, size: 0x8, addend: 0x0, symName: __ZNSt3__112basic_stringIcNS_11char_traitsIcEENS_9allocatorIcEEE14__set_long_capB8ue170006Em, symObjAddr: 0xBC18, symBinAddr: 0x10000DD84, symSize: 0x70 }
  - { offsetInCU: 0x15FE7, offset: 0x15FE7, size: 0x8, addend: 0x0, symName: __ZNSt3__112basic_stringIcNS_11char_traitsIcEENS_9allocatorIcEEE18__set_long_pointerB8ue170006EPc, symObjAddr: 0xBC88, symBinAddr: 0x10000DDF4, symSize: 0x38 }
  - { offsetInCU: 0x1601B, offset: 0x1601B, size: 0x8, addend: 0x0, symName: __ZNSt3__112basic_stringIcNS_11char_traitsIcEENS_9allocatorIcEEE10__align_itB8ue170006ILm16EEEmm, symObjAddr: 0xBCC0, symBinAddr: 0x10000DE2C, symSize: 0x1C }
  - { offsetInCU: 0x16049, offset: 0x16049, size: 0x8, addend: 0x0, symName: __ZNSt3__19allocatorIcE8allocateB8ue170006Em, symObjAddr: 0xBCDC, symBinAddr: 0x10000DE48, symSize: 0x58 }
  - { offsetInCU: 0x1609F, offset: 0x1609F, size: 0x8, addend: 0x0, symName: __ZNKSt3__114__copy_trivialclB8ue170006IKccLi0EEENS_4pairIPT_PT0_EES5_S5_S7_, symObjAddr: 0xBF54, symBinAddr: 0x10000E0C0, symSize: 0x48 }
  - { offsetInCU: 0x16124, offset: 0x16124, size: 0x8, addend: 0x0, symName: __ZNSt3__14pairIPKcS2_EC1B8ue170006IS2_S2_LPv0EEEOT_OT0_, symObjAddr: 0xC0BC, symBinAddr: 0x10000E228, symSize: 0x3C }
  - { offsetInCU: 0x16181, offset: 0x16181, size: 0x8, addend: 0x0, symName: __ZNSt3__14pairIPKcS2_EC2B8ue170006IS2_S2_LPv0EEEOT_OT0_, symObjAddr: 0xC0F8, symBinAddr: 0x10000E264, symSize: 0x34 }
  - { offsetInCU: 0x161DE, offset: 0x161DE, size: 0x8, addend: 0x0, symName: __ZNSt3__118__unwrap_iter_implIPKcLb1EE8__unwrapB8ue170006ES2_, symObjAddr: 0xC12C, symBinAddr: 0x10000E298, symSize: 0x24 }
  - { offsetInCU: 0x1620B, offset: 0x1620B, size: 0x8, addend: 0x0, symName: __ZNSt3__14pairIPKcPcEC1B8ue170006IRS2_S3_LPv0EEEOT_OT0_, symObjAddr: 0xC264, symBinAddr: 0x10000E3D0, symSize: 0x3C }
  - { offsetInCU: 0x16268, offset: 0x16268, size: 0x8, addend: 0x0, symName: __ZNSt3__14pairIPKcPcEC2B8ue170006IRS2_S3_LPv0EEEOT_OT0_, symObjAddr: 0xC2A0, symBinAddr: 0x10000E40C, symSize: 0x34 }
  - { offsetInCU: 0x162C5, offset: 0x162C5, size: 0x8, addend: 0x0, symName: __ZNSt3__118__unwrap_iter_implIPcLb1EE8__unwrapB8ue170006ES1_, symObjAddr: 0xC2D4, symBinAddr: 0x10000E440, symSize: 0x24 }
  - { offsetInCU: 0x162E8, offset: 0x162E8, size: 0x8, addend: 0x0, symName: __ZNSt3__14pairIPKcPcEC1B8ue170006IS2_S3_LPv0EEEOT_OT0_, symObjAddr: 0xC2F8, symBinAddr: 0x10000E464, symSize: 0x3C }
  - { offsetInCU: 0x16345, offset: 0x16345, size: 0x8, addend: 0x0, symName: __ZNSt3__14pairIPKcPcEC2B8ue170006IS2_S3_LPv0EEEOT_OT0_, symObjAddr: 0xC334, symBinAddr: 0x10000E4A0, symSize: 0x34 }
  - { offsetInCU: 0x163A2, offset: 0x163A2, size: 0x8, addend: 0x0, symName: __ZNSt3__118__unwrap_iter_implIPKcLb1EE8__rewrapB8ue170006ES2_S2_, symObjAddr: 0xC3A4, symBinAddr: 0x10000E510, symSize: 0x48 }
  - { offsetInCU: 0x163D3, offset: 0x163D3, size: 0x8, addend: 0x0, symName: __ZNSt3__118__unwrap_iter_implIPcLb1EE8__rewrapB8ue170006ES1_S1_, symObjAddr: 0xC3EC, symBinAddr: 0x10000E558, symSize: 0x48 }
  - { offsetInCU: 0x16404, offset: 0x16404, size: 0x8, addend: 0x0, symName: __ZNSt3__112basic_stringIcNS_11char_traitsIcEENS_9allocatorIcEEE6appendB8ue170006ERKS5_, symObjAddr: 0xC4F0, symBinAddr: 0x10000E65C, symSize: 0x4C }
  - { offsetInCU: 0x16456, offset: 0x16456, size: 0x8, addend: 0x0, symName: __ZNKSt3__113basic_ostreamIcNS_11char_traitsIcEEE6sentrycvbB8ue170006Ev, symObjAddr: 0xC728, symBinAddr: 0x10000E894, symSize: 0x1C }
  - { offsetInCU: 0x1647B, offset: 0x1647B, size: 0x8, addend: 0x0, symName: __ZNSt3__119ostreambuf_iteratorIcNS_11char_traitsIcEEEC1B8ue170006ERNS_13basic_ostreamIcS2_EE, symObjAddr: 0xC984, symBinAddr: 0x10000EAF0, symSize: 0x34 }
  - { offsetInCU: 0x164B2, offset: 0x164B2, size: 0x8, addend: 0x0, symName: __ZNKSt3__18ios_base5flagsB8ue170006Ev, symObjAddr: 0xC9B8, symBinAddr: 0x10000EB24, symSize: 0x18 }
  - { offsetInCU: 0x164D9, offset: 0x164D9, size: 0x8, addend: 0x0, symName: __ZNKSt3__19basic_iosIcNS_11char_traitsIcEEE4fillB8ue170006Ev, symObjAddr: 0xC9D0, symBinAddr: 0x10000EB3C, symSize: 0x64 }
  - { offsetInCU: 0x164FF, offset: 0x164FF, size: 0x8, addend: 0x0, symName: __ZNKSt3__119ostreambuf_iteratorIcNS_11char_traitsIcEEE6failedB8ue170006Ev, symObjAddr: 0xCA34, symBinAddr: 0x10000EBA0, symSize: 0x24 }
  - { offsetInCU: 0x16524, offset: 0x16524, size: 0x8, addend: 0x0, symName: __ZNSt3__115basic_streambufIcNS_11char_traitsIcEEE5sputnB8ue170006EPKcl, symObjAddr: 0xCA58, symBinAddr: 0x10000EBC4, symSize: 0x3C }
  - { offsetInCU: 0x16565, offset: 0x16565, size: 0x8, addend: 0x0, symName: __ZNSt3__112basic_stringIcNS_11char_traitsIcEENS_9allocatorIcEEEC1B8ue170006Emc, symObjAddr: 0xCA94, symBinAddr: 0x10000EC00, symSize: 0x3C }
  - { offsetInCU: 0x165AC, offset: 0x165AC, size: 0x8, addend: 0x0, symName: __ZNSt3__112basic_stringIcNS_11char_traitsIcEENS_9allocatorIcEEEC2B8ue170006Emc, symObjAddr: 0xCAD0, symBinAddr: 0x10000EC3C, symSize: 0x4C }
  - { offsetInCU: 0x165F3, offset: 0x165F3, size: 0x8, addend: 0x0, symName: __ZNSt3__119ostreambuf_iteratorIcNS_11char_traitsIcEEEC2B8ue170006ERNS_13basic_ostreamIcS2_EE, symObjAddr: 0xCB1C, symBinAddr: 0x10000EC88, symSize: 0x54 }
  - { offsetInCU: 0x1662A, offset: 0x1662A, size: 0x8, addend: 0x0, symName: __ZNKSt3__19basic_iosIcNS_11char_traitsIcEEE5widenB8ue170006Ec, symObjAddr: 0xCB70, symBinAddr: 0x10000ECDC, symSize: 0x84 }
  - { offsetInCU: 0x1665F, offset: 0x1665F, size: 0x8, addend: 0x0, symName: __ZNKSt3__15ctypeIcE5widenB8ue170006Ec, symObjAddr: 0xCBF4, symBinAddr: 0x10000ED60, symSize: 0x38 }
...
